

Microchip MPLAB XC8 Assembler V2.41 build 20230208172133 
                                                                                               Mon Jul 03 11:04:18 2023

Microchip MPLAB XC8 C Compiler v2.41 (Free license) build 20230208172133 Og1 
     1                           	processor	18F47Q10
     2                           	fnconf	rparam,??,?,0
     3                           	pagewidth 120
     4                           	opt	flic
     5                           	psect	cinit,global,reloc=2,class=CODE,delta=1
     6                           	psect	bssCOMRAM,global,class=COMRAM,space=1,delta=1,lowdata,noexec
     7                           	psect	bssBANK0,global,class=BANK0,space=1,delta=1,lowdata,noexec
     8                           	psect	cstackBANK0,global,class=BANK0,space=1,delta=1,lowdata,noexec
     9                           	psect	cstackCOMRAM,global,class=COMRAM,space=1,delta=1,lowdata,noexec
    10                           	psect	text0,global,reloc=2,class=CODE,delta=1
    11                           	psect	text1,global,reloc=2,class=CODE,delta=1
    12                           	psect	text2,global,reloc=2,class=CODE,delta=1
    13                           	psect	text3,global,reloc=2,class=CODE,delta=1
    14                           	psect	intcode,global,reloc=2,class=CODE,delta=1
    15                           	psect	text5,global,reloc=2,class=CODE,delta=1
    16                           	psect	text6,global,reloc=2,class=CODE,delta=1
    17                           	psect	text7,global,reloc=2,class=CODE,delta=1,group=2
    18                           	psect	text8,global,reloc=2,class=CODE,delta=1,group=2
    19                           	psect	text9,global,reloc=2,class=CODE,delta=1,group=2
    20                           	psect	text10,global,reloc=2,class=CODE,delta=1
    21                           	psect	text11,global,reloc=2,class=CODE,delta=1
    22                           	psect	text12,global,reloc=2,class=CODE,delta=1,group=2
    23                           	psect	text13,global,reloc=2,class=CODE,delta=1
    24                           	psect	text14,global,reloc=2,class=CODE,delta=1,group=1
    25                           	psect	text15,global,reloc=2,class=CODE,delta=1,group=1
    26                           	psect	text16,global,reloc=2,class=CODE,delta=1
    27                           	psect	text17,global,reloc=2,class=CODE,delta=1,group=1
    28                           	psect	intsave_regs,global,class=BIGRAM,space=1,delta=1,noexec
    29                           	psect	rparam,global,class=COMRAM,space=1,delta=1,noexec
    30                           	psect	temp,global,ovrld,common,class=COMRAM,space=1,delta=1
    31                           	psect	idloc,global,abs,ovrld,class=IDLOC,space=5,delta=1,noexec
    32                           	psect	config,global,abs,ovrld,class=CONFIG,space=4,delta=1,noexec
    33   000000                     
    34                           ; Generated 17/06/2022 GMT
    35                           ; 
    36                           ; Copyright © 2022, Microchip Technology Inc. and its subsidiaries ("Microchip")
    37                           ; All rights reserved.
    38                           ; 
    39                           ; This software is developed by Microchip Technology Inc. and its subsidiaries ("Microch
      +                          ip").
    40                           ; 
    41                           ; Redistribution and use in source and binary forms, with or without modification, are
    42                           ; permitted provided that the following conditions are met:
    43                           ; 
    44                           ;     1. Redistributions of source code must retain the above copyright notice, this lis
      +                          t of
    45                           ;        conditions and the following disclaimer.
    46                           ; 
    47                           ;     2. Redistributions in binary form must reproduce the above copyright notice, this 
      +                          list
    48                           ;        of conditions and the following disclaimer in the documentation and/or other
    49                           ;        materials provided with the distribution. Publication is not required when
    50                           ;        this file is used in an embedded application.
    51                           ; 
    52                           ;     3. Microchip's name may not be used to endorse or promote products derived from th
      +                          is
    53                           ;        software without specific prior written permission.
    54                           ; 
    55                           ; THIS SOFTWARE IS PROVIDED BY MICROCHIP "AS IS" AND ANY EXPRESS OR IMPLIED WARRANTIES,
    56                           ; INCLUDING, BUT NOT LIMITED TO, THE IMPLIED WARRANTIES OF MERCHANTABILITY AND FITNESS F
      +                          OR
    57                           ; PURPOSE ARE DISCLAIMED.  IN NO EVENT SHALL MICROCHIP BE LIABLE FOR ANY DIRECT, INDIREC
      +                          T,
    58                           ; INCIDENTAL, SPECIAL, EXEMPLARY, OR CONSEQUENTIAL DAMAGES (INCLUDING BUT NOT LIMITED TO
    59                           ; PROCUREMENT OF SUBSTITUTE GOODS OR SERVICES; LOSS OF USE, DATA OR PROFITS; OR BUSINESS
    60                           ; INTERRUPTION) HOWSOEVER CAUSED AND ON ANY THEORY OF LIABILITY, WHETHER IN CONTRACT, ST
      +                          RICT
    61                           ; LIABILITY, OR TORT (INCLUDING NEGLIGENCE OR OTHERWISE) ARISING IN ANY WAY OUT OF THE U
      +                          SE OF
    62                           ; THIS SOFTWARE, EVEN IF ADVISED OF THE POSSIBILITY OF SUCH DAMAGE.
    63                           ; 
    64                           ; 
    65                           ; Code-generator required, PIC18F47Q10 Definitions
    66                           ; 
    67                           ; SFR Addresses
    68   000000                     _TMR0H	set	4051
    69   000000                     _SSP2MSK	set	3727
    70   000000                     _SSP2CON1bits	set	3729
    71   000000                     _SSP1CON1bits	set	3989
    72   000000                     _T0CON0bits	set	4052
    73   000000                     _SSP2CLKPPS	set	3722
    74   000000                     _ANSELBbits	set	3860
    75   000000                     _TRISBbits	set	3976
    76   000000                     _TRISC	set	3977
    77   000000                     _SSP1BUF	set	3985
    78   000000                     _TMR0L	set	4050
    79   000000                     _T0CON0	set	4052
    80   000000                     _T0CON1	set	4053
    81   000000                     _ANSELC	set	3868
    82   000000                     _SSP2BUF	set	3725
    83   000000                     _SSP2ADD	set	3726
    84   000000                     _SSP2STATbits	set	3728
    85   000000                     _RB1PPS	set	3819
    86   000000                     _SSP2DATPPS	set	3723
    87   000000                     _RC3PPS	set	3829
    88   000000                     _RB2PPS	set	3820
    89   000000                     _SSP1CLKPPS	set	3762
    90   000000                     _IPR3bits	set	3768
    91   000000                     _PIR3bits	set	3784
    92   000000                     _SSP2CON2	set	3730
    93   000000                     _SSP2CON1	set	3729
    94   000000                     _PIE0bits	set	3773
    95   000000                     _PIE3bits	set	3776
    96   000000                     _PIR0bits	set	3781
    97   000000                     _INTCONbits	set	4082
    98   000000                     _SSP1ADD	set	3986
    99   000000                     _SSP1STAT	set	3988
   100   000000                     _SSP1DATPPS	set	3763
   101   000000                     _RC5PPS	set	3831
   102   000000                     _SSP1CON1	set	3989
   103                           
   104                           ; #config settings
   105                           
   106                           	psect	cinit
   107   000EDE                     __pcinit:
   108                           	callstack 0
   109   000EDE                     start_initialization:
   110                           	callstack 0
   111   000EDE                     __initialization:
   112                           	callstack 0
   113                           
   114                           ; Clear objects allocated to BANK0 (8 bytes)
   115   000EDE  EE00  F060         	lfsr	0,__pbssBANK0
   116   000EE2  0E08               	movlw	8
   117   000EE4                     clear_0:
   118   000EE4  6AEE               	clrf	postinc0,c
   119   000EE6  06E8               	decf	wreg,f,c
   120   000EE8  E1FD               	bnz	clear_0
   121                           
   122                           ; Clear objects allocated to COMRAM (43 bytes)
   123   000EEA  EE00  F031         	lfsr	0,__pbssCOMRAM
   124   000EEE  0E2B               	movlw	43
   125   000EF0                     clear_1:
   126   000EF0  6AEE               	clrf	postinc0,c
   127   000EF2  06E8               	decf	wreg,f,c
   128   000EF4  E1FD               	bnz	clear_1
   129   000EF6                     end_of_initialization:
   130                           	callstack 0
   131   000EF6                     __end_of__initialization:
   132                           	callstack 0
   133   000EF6  905C               	bcf	int$flags,0,c	;clear compiler interrupt flag (level 1)
   134   000EF8  925C               	bcf	int$flags,1,c	;clear compiler interrupt flag (level 2)
   135   000EFA  0100               	movlb	0
   136   000EFC  EF90  F007         	goto	_main	;jump to C main() function
   137                           
   138                           	psect	bssCOMRAM
   139   000031                     __pbssCOMRAM:
   140                           	callstack 0
   141   000031                     _rep_r:
   142                           	callstack 0
   143   000031                     	ds	4
   144   000035                     _rep:
   145                           	callstack 0
   146   000035                     	ds	4
   147   000039                     _periodo:
   148                           	callstack 0
   149   000039                     	ds	4
   150   00003D                     _brkp:
   151                           	callstack 0
   152   00003D                     	ds	2
   153   00003F                     malloc@end:
   154                           	callstack 0
   155   00003F                     	ds	2
   156   000041                     malloc@cur:
   157                           	callstack 0
   158   000041                     	ds	2
   159   000043                     _errno:
   160                           	callstack 0
   161   000043                     	ds	2
   162   000045                     ___freelist:
   163                           	callstack 0
   164   000045                     	ds	2
   165   000047                     _contador:
   166                           	callstack 0
   167   000047                     	ds	2
   168   000049                     _i:
   169                           	callstack 0
   170   000049                     	ds	2
   171   00004B                     _est_sec_r:
   172                           	callstack 0
   173   00004B                     	ds	2
   174   00004D                     _est_sec:
   175                           	callstack 0
   176   00004D                     	ds	2
   177   00004F                     _led_env:
   178                           	callstack 0
   179   00004F                     	ds	2
   180   000051                     _led_group:
   181                           	callstack 0
   182   000051                     	ds	2
   183   000053                     _n_led:
   184                           	callstack 0
   185   000053                     	ds	2
   186   000055                     _pixel:
   187                           	callstack 0
   188   000055                     	ds	2
   189   000057                     _dummy:
   190                           	callstack 0
   191   000057                     	ds	1
   192   000058                     _direccion:
   193                           	callstack 0
   194   000058                     	ds	1
   195   000059                     _n:
   196                           	callstack 0
   197   000059                     	ds	1
   198   00005A                     _s:
   199                           	callstack 0
   200   00005A                     	ds	1
   201   00005B                     _spi_estado:
   202                           	callstack 0
   203   00005B                     	ds	1
   204                           
   205                           	psect	bssBANK0
   206   000060                     __pbssBANK0:
   207                           	callstack 0
   208   000060                     malloc@lock:
   209                           	callstack 0
   210   000060                     	ds	4
   211   000064                     _tiempo:
   212                           	callstack 0
   213   000064                     	ds	4
   214                           
   215                           	psect	cstackBANK0
   216   000000                     __pcstackBANK0:
   217                           	callstack 0
   218   000000                     
   219                           ; 1 bytes @ 0x0
   220                           
   221                           	psect	cstackCOMRAM
   222   000001                     __pcstackCOMRAM:
   223                           	callstack 0
   224   000001                     ??_end_frame:
   225   000001                     ?___simple_search_fl:
   226                           	callstack 0
   227   000001                     ?___expand_heap:
   228                           	callstack 0
   229   000001                     ?___wmul:
   230                           	callstack 0
   231   000001                     ?___lwdiv:
   232                           	callstack 0
   233   000001                     ?___lldiv:
   234                           	callstack 0
   235   000001                     ___wmul@multiplier:
   236                           	callstack 0
   237   000001                     ___lwdiv@dividend:
   238                           	callstack 0
   239   000001                     ___simple_search_fl@n:
   240                           	callstack 0
   241   000001                     free@ptr:
   242                           	callstack 0
   243   000001                     ___expand_heap@pn:
   244                           	callstack 0
   245   000001                     ___lldiv@dividend:
   246                           	callstack 0
   247                           
   248                           ; 4 bytes @ 0x0
   249   000001                     	ds	2
   250   000003                     ??_free:
   251   000003                     ??___simple_search_fl:
   252   000003                     ??___expand_heap:
   253   000003                     ___wmul@multiplicand:
   254                           	callstack 0
   255   000003                     ___lwdiv@divisor:
   256                           	callstack 0
   257                           
   258                           ; 2 bytes @ 0x2
   259   000003                     	ds	2
   260   000005                     ___wmul@product:
   261                           	callstack 0
   262   000005                     ___lwdiv@quotient:
   263                           	callstack 0
   264   000005                     ___expand_heap@n:
   265                           	callstack 0
   266   000005                     ___lldiv@divisor:
   267                           	callstack 0
   268                           
   269                           ; 4 bytes @ 0x4
   270   000005                     	ds	2
   271   000007                     ___lwdiv@counter:
   272                           	callstack 0
   273   000007                     set_pixel_color@m:
   274                           	callstack 0
   275   000007                     ___simple_search_fl@remaining_size:
   276                           	callstack 0
   277   000007                     free@cptr:
   278                           	callstack 0
   279   000007                     ___expand_heap@new_brkp:
   280                           	callstack 0
   281                           
   282                           ; 2 bytes @ 0x6
   283   000007                     	ds	1
   284   000008                     ??_envio_pixel:
   285                           
   286                           ; 1 bytes @ 0x7
   287   000008                     	ds	1
   288   000009                     set_pixel_color@c:
   289                           	callstack 0
   290   000009                     ___simple_search_fl@best_last:
   291                           	callstack 0
   292   000009                     free@c:
   293                           	callstack 0
   294   000009                     ___lldiv@quotient:
   295                           	callstack 0
   296                           
   297                           ; 4 bytes @ 0x8
   298   000009                     	ds	1
   299   00000A                     set_pixel_color@p:
   300                           	callstack 0
   301                           
   302                           ; 2 bytes @ 0x9
   303   00000A                     	ds	1
   304   00000B                     ??_gestion_est_rep:
   305   00000B                     ___simple_search_fl@split:
   306                           	callstack 0
   307                           
   308                           ; 2 bytes @ 0xA
   309   00000B                     	ds	2
   310   00000D                     ___lldiv@counter:
   311                           	callstack 0
   312   00000D                     ___simple_search_fl@last:
   313                           	callstack 0
   314                           
   315                           ; 2 bytes @ 0xC
   316   00000D                     	ds	2
   317   00000F                     ___simple_search_fl@next:
   318                           	callstack 0
   319                           
   320                           ; 2 bytes @ 0xE
   321   00000F                     	ds	2
   322   000011                     ___simple_search_fl@c:
   323                           	callstack 0
   324                           
   325                           ; 2 bytes @ 0x10
   326   000011                     	ds	2
   327   000013                     ___simple_search_fl@best:
   328                           	callstack 0
   329                           
   330                           ; 2 bytes @ 0x12
   331   000013                     	ds	2
   332   000015                     ?_malloc:
   333                           	callstack 0
   334   000015                     malloc@n:
   335                           	callstack 0
   336                           
   337                           ; 2 bytes @ 0x14
   338   000015                     	ds	2
   339   000017                     ??_malloc:
   340                           
   341                           ; 1 bytes @ 0x16
   342   000017                     	ds	2
   343   000019                     malloc@m:
   344                           	callstack 0
   345                           
   346                           ; 2 bytes @ 0x18
   347   000019                     	ds	2
   348   00001B                     malloc@sz:
   349                           	callstack 0
   350                           
   351                           ; 2 bytes @ 0x1A
   352   00001B                     	ds	2
   353   00001D                     malloc@p:
   354                           	callstack 0
   355                           
   356                           ; 2 bytes @ 0x1C
   357   00001D                     	ds	2
   358   00001F                     malloc@new:
   359                           	callstack 0
   360                           
   361                           ; 2 bytes @ 0x1E
   362   00001F                     	ds	2
   363   000021                     ?_ini_array:
   364                           	callstack 0
   365   000021                     ini_array@secu:
   366                           	callstack 0
   367                           
   368                           ; 2 bytes @ 0x20
   369   000021                     	ds	2
   370   000023                     ini_array@led:
   371                           	callstack 0
   372                           
   373                           ; 2 bytes @ 0x22
   374   000023                     	ds	2
   375   000025                     ini_array@array:
   376                           	callstack 0
   377                           
   378                           ; 2 bytes @ 0x24
   379   000025                     	ds	2
   380   000027                     ??_interrupciones:
   381                           
   382                           ; 1 bytes @ 0x26
   383   000027                     	ds	10
   384                           
   385 ;;
   386 ;;Main: autosize = 0, tempsize = 0, incstack = 0, save=0
   387 ;;
   388 ;; *************** function _main *****************
   389 ;; Defined at:
   390 ;;		line 253 in file "main.c"
   391 ;; Parameters:    Size  Location     Type
   392 ;;		None
   393 ;; Auto vars:     Size  Location     Type
   394 ;;		None
   395 ;; Return value:  Size  Location     Type
   396 ;;                  1    wreg      void 
   397 ;; Registers used:
   398 ;;		wreg, status,2, cstack
   399 ;; Tracked objects:
   400 ;;		On entry : 0/0
   401 ;;		On exit  : 0/0
   402 ;;		Unchanged: 0/0
   403 ;; Data sizes:     COMRAM   BANK0   BANK1   BANK2   BANK3   BANK4   BANK5   BANK6   BANK7   BANK8   BANK9  BANK10  BANK1
      +1  BANK12  BANK14
   404 ;;      Params:         0       0       0       0       0       0       0       0       0       0       0       0       
      +0       0       0
   405 ;;      Locals:         0       0       0       0       0       0       0       0       0       0       0       0       
      +0       0       0
   406 ;;      Temps:          0       0       0       0       0       0       0       0       0       0       0       0       
      +0       0       0
   407 ;;      Totals:         0       0       0       0       0       0       0       0       0       0       0       0       
      +0       0       0
   408 ;;Total ram usage:        0 bytes
   409 ;; Hardware stack levels required when called: 5
   410 ;; This function calls:
   411 ;;		_i2c_ini_slave
   412 ;;		_ini_timer0
   413 ;;		_spi_ini
   414 ;; This function is called by:
   415 ;;		Startup code after reset
   416 ;; This function uses a non-reentrant model
   417 ;;
   418                           
   419                           	psect	text0
   420   000F20                     __ptext0:
   421                           	callstack 0
   422   000F20                     _main:
   423                           	callstack 26
   424   000F20                     
   425                           ;main.c: 255:     spi_ini();
   426   000F20  EC44  F007         	call	_spi_ini	;wreg free
   427                           
   428                           ;main.c: 256:     i2c_ini_slave();
   429   000F24  EC0F  F007         	call	_i2c_ini_slave	;wreg free
   430                           
   431                           ;main.c: 257:     ini_timer0();
   432   000F28  EC9C  F007         	call	_ini_timer0	;wreg free
   433   000F2C                     
   434                           ;main.c: 260:     INTCONbits.PEIE=1;
   435   000F2C  8CF2               	bsf	242,6,c	;volatile
   436   000F2E                     
   437                           ;main.c: 261:     INTCONbits.GIE=1;
   438   000F2E  8EF2               	bsf	242,7,c	;volatile
   439   000F30                     l197:
   440   000F30  EF98  F007         	goto	l197
   441   000F34  EF5F  F002         	goto	start
   442   000F38                     __end_of_main:
   443                           	callstack 0
   444                           
   445 ;; *************** function _spi_ini *****************
   446 ;; Defined at:
   447 ;;		line 9 in file "spi.c"
   448 ;; Parameters:    Size  Location     Type
   449 ;;		None
   450 ;; Auto vars:     Size  Location     Type
   451 ;;		None
   452 ;; Return value:  Size  Location     Type
   453 ;;                  1    wreg      void 
   454 ;; Registers used:
   455 ;;		wreg, status,2
   456 ;; Tracked objects:
   457 ;;		On entry : 0/0
   458 ;;		On exit  : 0/0
   459 ;;		Unchanged: 0/0
   460 ;; Data sizes:     COMRAM   BANK0   BANK1   BANK2   BANK3   BANK4   BANK5   BANK6   BANK7   BANK8   BANK9  BANK10  BANK1
      +1  BANK12  BANK14
   461 ;;      Params:         0       0       0       0       0       0       0       0       0       0       0       0       
      +0       0       0
   462 ;;      Locals:         0       0       0       0       0       0       0       0       0       0       0       0       
      +0       0       0
   463 ;;      Temps:          0       0       0       0       0       0       0       0       0       0       0       0       
      +0       0       0
   464 ;;      Totals:         0       0       0       0       0       0       0       0       0       0       0       0       
      +0       0       0
   465 ;;Total ram usage:        0 bytes
   466 ;; Hardware stack levels used: 1
   467 ;; Hardware stack levels required when called: 4
   468 ;; This function calls:
   469 ;;		Nothing
   470 ;; This function is called by:
   471 ;;		_main
   472 ;; This function uses a non-reentrant model
   473 ;;
   474                           
   475                           	psect	text1
   476   000E88                     __ptext1:
   477                           	callstack 0
   478   000E88                     _spi_ini:
   479                           	callstack 26
   480   000E88                     
   481                           ;spi.c: 11:     SSP1CLKPPS = 0x13;
   482   000E88  0E13               	movlw	19
   483   000E8A  010E               	movlb	14	; () banked
   484   000E8C  6FB2               	movwf	178,b	;volatile
   485                           
   486                           ;spi.c: 12:     RC3PPS=0x0F;
   487   000E8E  0E0F               	movlw	15
   488   000E90  6FF5               	movwf	245,b	;volatile
   489                           
   490                           ;spi.c: 13:     RC5PPS=0x10;
   491   000E92  0E10               	movlw	16
   492   000E94  6FF7               	movwf	247,b	;volatile
   493                           
   494                           ;spi.c: 14:     SSP1DATPPS=0x14;
   495   000E96  0E14               	movlw	20
   496   000E98  6FB3               	movwf	179,b	;volatile
   497                           
   498                           ;spi.c: 16:     SSP1STAT=0x40;
   499   000E9A  0E40               	movlw	64
   500   000E9C  6E94               	movwf	148,c	;volatile
   501                           
   502                           ;spi.c: 17:     SSP1CON1=0x02;
   503   000E9E  0E02               	movlw	2
   504   000EA0  6E95               	movwf	149,c	;volatile
   505                           
   506                           ;spi.c: 18:     SSP1ADD=0x01;
   507   000EA2  0E01               	movlw	1
   508   000EA4  6E92               	movwf	146,c	;volatile
   509                           
   510                           ;spi.c: 19:     ANSELC=0xC7;
   511   000EA6  0EC7               	movlw	199
   512   000EA8  010F               	movlb	15	; () banked
   513   000EAA  6F1C               	movwf	28,b	;volatile
   514                           
   515                           ;spi.c: 20:     TRISC=0xD7;
   516   000EAC  0ED7               	movlw	215
   517   000EAE  6E89               	movwf	137,c	;volatile
   518   000EB0                     
   519                           ; BSR set to: 15
   520                           ;spi.c: 22:     SSP1CON1bits.SSPEN=1;
   521   000EB0  8A95               	bsf	149,5,c	;volatile
   522   000EB2                     
   523                           ; BSR set to: 15
   524                           ;spi.c: 23:     PIE3bits.SSP1IE=1;
   525   000EB2  010E               	movlb	14	; () banked
   526   000EB4  81C0               	bsf	192,0,b	;volatile
   527   000EB6                     
   528                           ; BSR set to: 14
   529   000EB6  0012               	return		;funcret
   530   000EB8                     __end_of_spi_ini:
   531                           	callstack 0
   532                           
   533 ;; *************** function _ini_timer0 *****************
   534 ;; Defined at:
   535 ;;		line 39 in file "main.c"
   536 ;; Parameters:    Size  Location     Type
   537 ;;		None
   538 ;; Auto vars:     Size  Location     Type
   539 ;;		None
   540 ;; Return value:  Size  Location     Type
   541 ;;                  1    wreg      void 
   542 ;; Registers used:
   543 ;;		wreg, status,2
   544 ;; Tracked objects:
   545 ;;		On entry : 0/0
   546 ;;		On exit  : 0/0
   547 ;;		Unchanged: 0/0
   548 ;; Data sizes:     COMRAM   BANK0   BANK1   BANK2   BANK3   BANK4   BANK5   BANK6   BANK7   BANK8   BANK9  BANK10  BANK1
      +1  BANK12  BANK14
   549 ;;      Params:         0       0       0       0       0       0       0       0       0       0       0       0       
      +0       0       0
   550 ;;      Locals:         0       0       0       0       0       0       0       0       0       0       0       0       
      +0       0       0
   551 ;;      Temps:          0       0       0       0       0       0       0       0       0       0       0       0       
      +0       0       0
   552 ;;      Totals:         0       0       0       0       0       0       0       0       0       0       0       0       
      +0       0       0
   553 ;;Total ram usage:        0 bytes
   554 ;; Hardware stack levels used: 1
   555 ;; Hardware stack levels required when called: 4
   556 ;; This function calls:
   557 ;;		Nothing
   558 ;; This function is called by:
   559 ;;		_main
   560 ;; This function uses a non-reentrant model
   561 ;;
   562                           
   563                           	psect	text2
   564   000F38                     __ptext2:
   565                           	callstack 0
   566   000F38                     _ini_timer0:
   567                           	callstack 26
   568   000F38                     
   569                           ;main.c: 40:     T0CON1=0x43;
   570   000F38  0E43               	movlw	67
   571   000F3A  6ED5               	movwf	213,c	;volatile
   572                           
   573                           ;main.c: 41:     T0CON0=0x00;
   574   000F3C  0E00               	movlw	0
   575   000F3E  6ED4               	movwf	212,c	;volatile
   576                           
   577                           ;main.c: 42:     TMR0L=0x00;
   578   000F40  0E00               	movlw	0
   579   000F42  6ED2               	movwf	210,c	;volatile
   580                           
   581                           ;main.c: 43:     TMR0H=0xC7;
   582   000F44  0EC7               	movlw	199
   583   000F46  6ED3               	movwf	211,c	;volatile
   584   000F48                     
   585                           ;main.c: 44:     PIR0bits.TMR0IF=0;
   586   000F48  010E               	movlb	14	; () banked
   587   000F4A  9BC5               	bcf	197,5,b	;volatile
   588   000F4C                     
   589                           ; BSR set to: 14
   590                           ;main.c: 45:     PIE0bits.TMR0IE=1;
   591   000F4C  8BBD               	bsf	189,5,b	;volatile
   592   000F4E                     
   593                           ; BSR set to: 14
   594   000F4E  0012               	return		;funcret
   595   000F50                     __end_of_ini_timer0:
   596                           	callstack 0
   597                           
   598 ;; *************** function _i2c_ini_slave *****************
   599 ;; Defined at:
   600 ;;		line 10 in file "i2c_slave.c"
   601 ;; Parameters:    Size  Location     Type
   602 ;;		None
   603 ;; Auto vars:     Size  Location     Type
   604 ;;		None
   605 ;; Return value:  Size  Location     Type
   606 ;;                  1    wreg      void 
   607 ;; Registers used:
   608 ;;		wreg, status,2
   609 ;; Tracked objects:
   610 ;;		On entry : 0/0
   611 ;;		On exit  : 0/0
   612 ;;		Unchanged: 0/0
   613 ;; Data sizes:     COMRAM   BANK0   BANK1   BANK2   BANK3   BANK4   BANK5   BANK6   BANK7   BANK8   BANK9  BANK10  BANK1
      +1  BANK12  BANK14
   614 ;;      Params:         0       0       0       0       0       0       0       0       0       0       0       0       
      +0       0       0
   615 ;;      Locals:         0       0       0       0       0       0       0       0       0       0       0       0       
      +0       0       0
   616 ;;      Temps:          0       0       0       0       0       0       0       0       0       0       0       0       
      +0       0       0
   617 ;;      Totals:         0       0       0       0       0       0       0       0       0       0       0       0       
      +0       0       0
   618 ;;Total ram usage:        0 bytes
   619 ;; Hardware stack levels used: 1
   620 ;; Hardware stack levels required when called: 4
   621 ;; This function calls:
   622 ;;		Nothing
   623 ;; This function is called by:
   624 ;;		_main
   625 ;; This function uses a non-reentrant model
   626 ;;
   627                           
   628                           	psect	text3
   629   000E1E                     __ptext3:
   630                           	callstack 0
   631   000E1E                     _i2c_ini_slave:
   632                           	callstack 26
   633   000E1E                     
   634                           ;i2c_slave.c: 12:     TRISBbits.TRISB1=1;
   635   000E1E  8288               	bsf	136,1,c	;volatile
   636                           
   637                           ;i2c_slave.c: 13:     TRISBbits.TRISB2=1;
   638   000E20  8488               	bsf	136,2,c	;volatile
   639                           
   640                           ;i2c_slave.c: 14:     ANSELBbits.ANSELB1=0;
   641   000E22  010F               	movlb	15	; () banked
   642   000E24  9314               	bcf	20,1,b	;volatile
   643                           
   644                           ;i2c_slave.c: 15:     ANSELBbits.ANSELB2=0;
   645   000E26  9514               	bcf	20,2,b	;volatile
   646   000E28                     
   647                           ; BSR set to: 15
   648                           ;i2c_slave.c: 16:     SSP2CLKPPS=0X09;
   649   000E28  0E09               	movlw	9
   650   000E2A  010E               	movlb	14	; () banked
   651   000E2C  6F8A               	movwf	138,b	;volatile
   652                           
   653                           ;i2c_slave.c: 17:     SSP2DATPPS=0X0A;
   654   000E2E  0E0A               	movlw	10
   655   000E30  6F8B               	movwf	139,b	;volatile
   656                           
   657                           ;i2c_slave.c: 18:     RB1PPS=0X11;
   658   000E32  0E11               	movlw	17
   659   000E34  6FEB               	movwf	235,b	;volatile
   660                           
   661                           ;i2c_slave.c: 19:     RB2PPS=0X12;
   662   000E36  0E12               	movlw	18
   663   000E38  6FEC               	movwf	236,b	;volatile
   664   000E3A                     
   665                           ; BSR set to: 14
   666                           ;i2c_slave.c: 21:     SSP2STATbits.SMP=1;
   667   000E3A  8F90               	bsf	144,7,b	;volatile
   668                           
   669                           ;i2c_slave.c: 22:     SSP2CON1=0x06;
   670   000E3C  0E06               	movlw	6
   671   000E3E  6F91               	movwf	145,b	;volatile
   672                           
   673                           ;i2c_slave.c: 23:     SSP2CON2=0x81;
   674   000E40  0E81               	movlw	129
   675   000E42  6F92               	movwf	146,b	;volatile
   676                           
   677                           ;i2c_slave.c: 24:     SSP2ADD=(uint8_t)(0x06<<1);
   678   000E44  0E0C               	movlw	12
   679   000E46  6F8E               	movwf	142,b	;volatile
   680                           
   681                           ;i2c_slave.c: 25:     SSP2MSK=0xFE;
   682   000E48  0EFE               	movlw	254
   683   000E4A  6F8F               	movwf	143,b	;volatile
   684   000E4C                     
   685                           ; BSR set to: 14
   686                           ;i2c_slave.c: 26:     SSP2CON1bits.SSPEN=1;
   687   000E4C  8B91               	bsf	145,5,b	;volatile
   688   000E4E                     
   689                           ; BSR set to: 14
   690                           ;i2c_slave.c: 28:     PIR3bits.SSPIF=0;
   691   000E4E  91C8               	bcf	200,0,b	;volatile
   692   000E50                     
   693                           ; BSR set to: 14
   694                           ;i2c_slave.c: 29:     IPR3bits.SSP2IP=1;
   695   000E50  85B8               	bsf	184,2,b	;volatile
   696   000E52                     
   697                           ; BSR set to: 14
   698                           ;i2c_slave.c: 30:     PIE3bits.SSP2IE=1;
   699   000E52  85C0               	bsf	192,2,b	;volatile
   700   000E54                     
   701                           ; BSR set to: 14
   702   000E54  0012               	return		;funcret
   703   000E56                     __end_of_i2c_ini_slave:
   704                           	callstack 0
   705                           
   706 ;; *************** function _interrupciones *****************
   707 ;; Defined at:
   708 ;;		line 148 in file "main.c"
   709 ;; Parameters:    Size  Location     Type
   710 ;;		None
   711 ;; Auto vars:     Size  Location     Type
   712 ;;		None
   713 ;; Return value:  Size  Location     Type
   714 ;;                  1    wreg      void 
   715 ;; Registers used:
   716 ;;		wreg, fsr1l, fsr1h, fsr2l, fsr2h, status,2, status,0, prodl, prodh, cstack
   717 ;; Tracked objects:
   718 ;;		On entry : 0/0
   719 ;;		On exit  : 0/0
   720 ;;		Unchanged: 0/0
   721 ;; Data sizes:     COMRAM   BANK0   BANK1   BANK2   BANK3   BANK4   BANK5   BANK6   BANK7   BANK8   BANK9  BANK10  BANK1
      +1  BANK12  BANK14
   722 ;;      Params:         0       0       0       0       0       0       0       0       0       0       0       0       
      +0       0       0
   723 ;;      Locals:         0       0       0       0       0       0       0       0       0       0       0       0       
      +0       0       0
   724 ;;      Temps:         10       0       0       0       0       0       0       0       0       0       0       0       
      +0       0       0
   725 ;;      Totals:        10       0       0       0       0       0       0       0       0       0       0       0       
      +0       0       0
   726 ;;Total ram usage:       10 bytes
   727 ;; Hardware stack levels used: 1
   728 ;; Hardware stack levels required when called: 3
   729 ;; This function calls:
   730 ;;		___lldiv
   731 ;;		_end_frame
   732 ;;		_envio_pixel
   733 ;;		_gestion_est_rep
   734 ;;		_ini_array
   735 ;;		_set_pixel_color
   736 ;;		_start_frame
   737 ;; This function is called by:
   738 ;;		Interrupt level 2
   739 ;; This function uses a non-reentrant model
   740 ;;
   741                           
   742                           	psect	intcode
   743   000008                     __pintcode:
   744                           	callstack 0
   745   000008                     _interrupciones:
   746                           	callstack 26
   747                           
   748                           ; BSR set to: 14
   749                           ;incstack = 0
   750   000008  825C               	bsf	int$flags,1,c	;set compiler interrupt flag (level 2)
   751   00000A  CFE1 F02B          	movff	fsr1l,??_interrupciones+4
   752   00000E  CFE2 F02C          	movff	fsr1h,??_interrupciones+5
   753   000012  CFD9 F02D          	movff	fsr2l,??_interrupciones+6
   754   000016  CFDA F02E          	movff	fsr2h,??_interrupciones+7
   755   00001A  CFF3 F02F          	movff	prodl,??_interrupciones+8
   756   00001E  CFF4 F030          	movff	prodh,??_interrupciones+9
   757   000022                     
   758                           ;main.c: 149:     if (PIR3bits.SSP1IF==1 && PIE3bits.SSP1IE==1){
   759   000022  010E               	movlb	14	; () banked
   760   000024  A1C8               	btfss	200,0,b	;volatile
   761   000026  EF17  F000         	goto	i2u114_41
   762   00002A  EF19  F000         	goto	i2u114_40
   763   00002E                     i2u114_41:
   764   00002E  EF53  F000         	goto	i2l147
   765   000032                     i2u114_40:
   766   000032                     
   767                           ; BSR set to: 14
   768   000032  A1C0               	btfss	192,0,b	;volatile
   769   000034  EF1E  F000         	goto	i2u115_41
   770   000038  EF20  F000         	goto	i2u115_40
   771   00003C                     i2u115_41:
   772   00003C  EF53  F000         	goto	i2l147
   773   000040                     i2u115_40:
   774   000040                     
   775                           ; BSR set to: 14
   776                           ;main.c: 150:         PIR3bits.SSP1IF=0;
   777   000040  91C8               	bcf	200,0,b	;volatile
   778                           
   779                           ;main.c: 151:         switch(spi_estado){
   780   000042  EF36  F000         	goto	i2l1822
   781   000046                     i2l1808:
   782                           
   783                           ; BSR set to: 14
   784                           ;main.c: 153:                 start_frame();
   785   000046  EC80  F007         	call	_start_frame	;wreg free
   786                           
   787                           ;main.c: 154:                 break;
   788   00004A  EF53  F000         	goto	i2l147
   789   00004E                     i2l1810:
   790                           
   791                           ; BSR set to: 14
   792                           ;main.c: 156:                 envio_pixel();
   793   00004E  EC02  F005         	call	_envio_pixel	;wreg free
   794                           
   795                           ;main.c: 157:                 break;
   796   000052  EF53  F000         	goto	i2l147
   797   000056                     i2l1812:
   798                           
   799                           ; BSR set to: 14
   800                           ;main.c: 159:                 end_frame();
   801   000056  ECCA  F006         	call	_end_frame	;wreg free
   802                           
   803                           ;main.c: 160:                 break;
   804   00005A  EF53  F000         	goto	i2l147
   805   00005E                     i2l1814:
   806                           
   807                           ; BSR set to: 14
   808                           ;main.c: 162:                 spi_estado=0;
   809   00005E  0E00               	movlw	0
   810   000060  6E5B               	movwf	_spi_estado^0,c
   811   000062                     
   812                           ; BSR set to: 14
   813                           ;main.c: 163:                 est_sec_r++;
   814   000062  4A4B               	infsnz	_est_sec_r^0,f,c
   815   000064  2A4C               	incf	(_est_sec_r+1)^0,f,c
   816   000066                     
   817                           ; BSR set to: 14
   818                           ;main.c: 164:                 T0CON0bits.T0EN=1;
   819   000066  8ED4               	bsf	212,7,c	;volatile
   820                           
   821                           ;main.c: 165:                 break;
   822   000068  EF53  F000         	goto	i2l147
   823   00006C                     i2l1822:
   824                           
   825                           ; BSR set to: 14
   826   00006C  505B               	movf	_spi_estado^0,w,c
   827   00006E  6E27               	movwf	??_interrupciones^0,c
   828   000070  6A28               	clrf	(??_interrupciones+1)^0,c
   829                           
   830                           ; Switch on 2 bytes has been partitioned into a top level switch of size 1, and 1 sub-sw
      +                          itches
   831                           ; Switch size 1, requested type "simple"
   832                           ; Number of cases is 1, Range of values is 0 to 0
   833                           ; switch strategies available:
   834                           ; Name         Instructions Cycles
   835                           ; simple_byte            4     3 (average)
   836                           ;	Chosen strategy is simple_byte
   837   000072  5028               	movf	(??_interrupciones+1)^0,w,c
   838   000074  0A00               	xorlw	0	; case 0
   839   000076  B4D8               	btfsc	status,2,c
   840   000078  EF40  F000         	goto	i2l1964
   841   00007C  EF53  F000         	goto	i2l147
   842   000080                     i2l1964:
   843                           
   844                           ; BSR set to: 14
   845                           ; Switch size 1, requested type "simple"
   846                           ; Number of cases is 4, Range of values is 0 to 3
   847                           ; switch strategies available:
   848                           ; Name         Instructions Cycles
   849                           ; simple_byte           13     7 (average)
   850                           ;	Chosen strategy is simple_byte
   851   000080  5027               	movf	??_interrupciones^0,w,c
   852   000082  0A00               	xorlw	0	; case 0
   853   000084  B4D8               	btfsc	status,2,c
   854   000086  EF23  F000         	goto	i2l1808
   855   00008A  0A01               	xorlw	1	; case 1
   856   00008C  B4D8               	btfsc	status,2,c
   857   00008E  EF27  F000         	goto	i2l1810
   858   000092  0A03               	xorlw	3	; case 2
   859   000094  B4D8               	btfsc	status,2,c
   860   000096  EF2B  F000         	goto	i2l1812
   861   00009A  0A01               	xorlw	1	; case 3
   862   00009C  B4D8               	btfsc	status,2,c
   863   00009E  EF2F  F000         	goto	i2l1814
   864   0000A2  EF53  F000         	goto	i2l147
   865   0000A6                     i2l147:
   866                           
   867                           ;main.c: 168:     if (PIR3bits.SSP2IF==1 && PIE3bits.SSP2IE==1){
   868   0000A6  010E               	movlb	14	; () banked
   869   0000A8  A5C8               	btfss	200,2,b	;volatile
   870   0000AA  EF59  F000         	goto	i2u116_41
   871   0000AE  EF5B  F000         	goto	i2u116_40
   872   0000B2                     i2u116_41:
   873   0000B2  EF20  F002         	goto	i2l154
   874   0000B6                     i2u116_40:
   875   0000B6                     
   876                           ; BSR set to: 14
   877   0000B6  A5C0               	btfss	192,2,b	;volatile
   878   0000B8  EF60  F000         	goto	i2u117_41
   879   0000BC  EF62  F000         	goto	i2u117_40
   880   0000C0                     i2u117_41:
   881   0000C0  EF20  F002         	goto	i2l154
   882   0000C4                     i2u117_40:
   883   0000C4                     
   884                           ; BSR set to: 14
   885                           ;main.c: 169:         PIR3bits.SSP2IF=0;
   886   0000C4  95C8               	bcf	200,2,b	;volatile
   887                           
   888                           ;main.c: 170:         if (SSP2STATbits.RW==0){
   889   0000C6  B590               	btfsc	144,2,b	;volatile
   890   0000C8  EF68  F000         	goto	i2u118_41
   891   0000CC  EF6A  F000         	goto	i2u118_40
   892   0000D0                     i2u118_41:
   893   0000D0  EF20  F002         	goto	i2l154
   894   0000D4                     i2u118_40:
   895   0000D4                     
   896                           ; BSR set to: 14
   897                           ;main.c: 171:             if (SSP2STATbits.D_nA==0){
   898   0000D4  BB90               	btfsc	144,5,b	;volatile
   899   0000D6  EF6F  F000         	goto	i2u119_41
   900   0000DA  EF71  F000         	goto	i2u119_40
   901   0000DE                     i2u119_41:
   902   0000DE  EF8B  F000         	goto	i2l1840
   903   0000E2                     i2u119_40:
   904   0000E2                     
   905                           ; BSR set to: 14
   906                           ;main.c: 172:                 direccion=SSP2BUF;
   907   0000E2  CE8D F058          	movff	3725,_direccion	;volatile
   908                           
   909                           ;main.c: 173:                 SSP2CON1bits.CKP=1;
   910   0000E6  8991               	bsf	145,4,b	;volatile
   911   0000E8                     
   912                           ; BSR set to: 14
   913                           ;main.c: 174:                 if (direccion==0x00){
   914   0000E8  5058               	movf	_direccion^0,w,c
   915   0000EA  A4D8               	btfss	status,2,c
   916   0000EC  EF7A  F000         	goto	i2u120_41
   917   0000F0  EF7C  F000         	goto	i2u120_40
   918   0000F4                     i2u120_41:
   919   0000F4  EF81  F000         	goto	i2l1838
   920   0000F8                     i2u120_40:
   921   0000F8                     
   922                           ; BSR set to: 14
   923                           ;main.c: 175:                     PIE3bits.SSP1IE=1;
   924   0000F8  81C0               	bsf	192,0,b	;volatile
   925   0000FA                     
   926                           ; BSR set to: 14
   927                           ;main.c: 176:                     start_frame();
   928   0000FA  EC80  F007         	call	_start_frame	;wreg free
   929                           
   930                           ;main.c: 177:                 }
   931   0000FE  EF20  F002         	goto	i2l154
   932   000102                     i2l1838:
   933                           
   934                           ; BSR set to: 14
   935                           ;main.c: 179:                     i=0;
   936   000102  0E00               	movlw	0
   937   000104  6E4A               	movwf	(_i+1)^0,c
   938   000106  0E00               	movlw	0
   939   000108  6E49               	movwf	_i^0,c
   940                           
   941                           ;main.c: 180:                     contador=0;
   942   00010A  0E00               	movlw	0
   943   00010C  6E48               	movwf	(_contador+1)^0,c
   944   00010E  0E00               	movlw	0
   945   000110  6E47               	movwf	_contador^0,c
   946   000112  EF20  F002         	goto	i2l154
   947   000116                     i2l1840:
   948                           
   949                           ; BSR set to: 14
   950                           ;main.c: 184:                 if (direccion==0x0C){
   951   000116  0E0C               	movlw	12
   952   000118  1858               	xorwf	_direccion^0,w,c
   953   00011A  A4D8               	btfss	status,2,c
   954   00011C  EF92  F000         	goto	i2u121_41
   955   000120  EF94  F000         	goto	i2u121_40
   956   000124                     i2u121_41:
   957   000124  EF1E  F002         	goto	i2l160
   958   000128                     i2u121_40:
   959   000128                     
   960                           ; BSR set to: 14
   961                           ;main.c: 185:                     if(i==0){
   962   000128  5049               	movf	_i^0,w,c
   963   00012A  104A               	iorwf	(_i+1)^0,w,c
   964   00012C  A4D8               	btfss	status,2,c
   965   00012E  EF9B  F000         	goto	i2u122_41
   966   000132  EF9D  F000         	goto	i2u122_40
   967   000136                     i2u122_41:
   968   000136  EFA2  F000         	goto	i2l1846
   969   00013A                     i2u122_40:
   970   00013A                     
   971                           ; BSR set to: 14
   972                           ;main.c: 186:                        n_led=((uint16_t)SSP2BUF << 8);
   973   00013A  518D               	movf	141,w,b	;volatile
   974   00013C  6E54               	movwf	(_n_led+1)^0,c
   975   00013E  6A53               	clrf	_n_led^0,c
   976                           
   977                           ;main.c: 187:                     }
   978   000140  EF18  F002         	goto	i2l1906
   979   000144                     i2l1846:
   980                           
   981                           ; BSR set to: 14
   982   000144  0449               	decf	_i^0,w,c
   983   000146  104A               	iorwf	(_i+1)^0,w,c
   984   000148  A4D8               	btfss	status,2,c
   985   00014A  EFA9  F000         	goto	i2u123_41
   986   00014E  EFAB  F000         	goto	i2u123_40
   987   000152                     i2u123_41:
   988   000152  EFB2  F000         	goto	i2l1850
   989   000156                     i2u123_40:
   990   000156                     
   991                           ; BSR set to: 14
   992                           ;main.c: 189:                         n_led=n_led | (uint16_t)SSP2BUF;
   993   000156  5053               	movf	_n_led^0,w,c
   994   000158  118D               	iorwf	141,w,b	;volatile
   995   00015A  6E53               	movwf	_n_led^0,c
   996   00015C  5054               	movf	(_n_led+1)^0,w,c
   997   00015E  6E54               	movwf	(_n_led+1)^0,c
   998                           
   999                           ;main.c: 190:                     }
  1000   000160  EF18  F002         	goto	i2l1906
  1001   000164                     i2l1850:
  1002                           
  1003                           ; BSR set to: 14
  1004   000164  0E02               	movlw	2
  1005   000166  1849               	xorwf	_i^0,w,c
  1006   000168  104A               	iorwf	(_i+1)^0,w,c
  1007   00016A  A4D8               	btfss	status,2,c
  1008   00016C  EFBA  F000         	goto	i2u124_41
  1009   000170  EFBC  F000         	goto	i2u124_40
  1010   000174                     i2u124_41:
  1011   000174  EFD0  F000         	goto	i2l1854
  1012   000178                     i2u124_40:
  1013   000178                     
  1014                           ; BSR set to: 14
  1015                           ;main.c: 192:                         periodo=((uint32_t)SSP2BUF << 24);
  1016   000178  CE8D F027          	movff	3725,??_interrupciones	;volatile
  1017   00017C  6A28               	clrf	(??_interrupciones+1)^0,c
  1018   00017E  6A29               	clrf	(??_interrupciones+2)^0,c
  1019   000180  6A2A               	clrf	(??_interrupciones+3)^0,c
  1020   000182  C027  F02A         	movff	??_interrupciones,??_interrupciones+3
  1021   000186  6A29               	clrf	(??_interrupciones+2)^0,c
  1022   000188  6A28               	clrf	(??_interrupciones+1)^0,c
  1023   00018A  6A27               	clrf	??_interrupciones^0,c
  1024   00018C  C027  F039         	movff	??_interrupciones,_periodo
  1025   000190  C028  F03A         	movff	??_interrupciones+1,_periodo+1
  1026   000194  C029  F03B         	movff	??_interrupciones+2,_periodo+2
  1027   000198  C02A  F03C         	movff	??_interrupciones+3,_periodo+3
  1028                           
  1029                           ;main.c: 193:                     }
  1030   00019C  EF18  F002         	goto	i2l1906
  1031   0001A0                     i2l1854:
  1032                           
  1033                           ; BSR set to: 14
  1034   0001A0  0E03               	movlw	3
  1035   0001A2  1849               	xorwf	_i^0,w,c
  1036   0001A4  104A               	iorwf	(_i+1)^0,w,c
  1037   0001A6  A4D8               	btfss	status,2,c
  1038   0001A8  EFD8  F000         	goto	i2u125_41
  1039   0001AC  EFDA  F000         	goto	i2u125_40
  1040   0001B0                     i2u125_41:
  1041   0001B0  EFF3  F000         	goto	i2l1858
  1042   0001B4                     i2u125_40:
  1043   0001B4                     
  1044                           ; BSR set to: 14
  1045                           ;main.c: 195:                         periodo=periodo | ((uint32_t)SSP2BUF << 16);
  1046   0001B4  CE8D F027          	movff	3725,??_interrupciones	;volatile
  1047   0001B8  6A28               	clrf	(??_interrupciones+1)^0,c
  1048   0001BA  6A29               	clrf	(??_interrupciones+2)^0,c
  1049   0001BC  6A2A               	clrf	(??_interrupciones+3)^0,c
  1050   0001BE  C028  F02A         	movff	??_interrupciones+1,??_interrupciones+3
  1051   0001C2  C027  F029         	movff	??_interrupciones,??_interrupciones+2
  1052   0001C6  6A28               	clrf	(??_interrupciones+1)^0,c
  1053   0001C8  6A27               	clrf	??_interrupciones^0,c
  1054   0001CA  5039               	movf	_periodo^0,w,c
  1055   0001CC  1027               	iorwf	??_interrupciones^0,w,c
  1056   0001CE  6E39               	movwf	_periodo^0,c
  1057   0001D0  503A               	movf	(_periodo+1)^0,w,c
  1058   0001D2  1028               	iorwf	(??_interrupciones+1)^0,w,c
  1059   0001D4  6E3A               	movwf	(_periodo+1)^0,c
  1060   0001D6  503B               	movf	(_periodo+2)^0,w,c
  1061   0001D8  1029               	iorwf	(??_interrupciones+2)^0,w,c
  1062   0001DA  6E3B               	movwf	(_periodo+2)^0,c
  1063   0001DC  503C               	movf	(_periodo+3)^0,w,c
  1064   0001DE  102A               	iorwf	(??_interrupciones+3)^0,w,c
  1065   0001E0  6E3C               	movwf	(_periodo+3)^0,c
  1066                           
  1067                           ;main.c: 196:                     }
  1068   0001E2  EF18  F002         	goto	i2l1906
  1069   0001E6                     i2l1858:
  1070                           
  1071                           ; BSR set to: 14
  1072   0001E6  0E04               	movlw	4
  1073   0001E8  1849               	xorwf	_i^0,w,c
  1074   0001EA  104A               	iorwf	(_i+1)^0,w,c
  1075   0001EC  A4D8               	btfss	status,2,c
  1076   0001EE  EFFB  F000         	goto	i2u126_41
  1077   0001F2  EFFD  F000         	goto	i2u126_40
  1078   0001F6                     i2u126_41:
  1079   0001F6  EF17  F001         	goto	i2l1862
  1080   0001FA                     i2u126_40:
  1081   0001FA                     
  1082                           ; BSR set to: 14
  1083                           ;main.c: 198:                         periodo=periodo | ((uint32_t)SSP2BUF << 8);
  1084   0001FA  CE8D F027          	movff	3725,??_interrupciones	;volatile
  1085   0001FE  6A28               	clrf	(??_interrupciones+1)^0,c
  1086   000200  6A29               	clrf	(??_interrupciones+2)^0,c
  1087   000202  6A2A               	clrf	(??_interrupciones+3)^0,c
  1088   000204  C029  F02A         	movff	??_interrupciones+2,??_interrupciones+3
  1089   000208  C028  F029         	movff	??_interrupciones+1,??_interrupciones+2
  1090   00020C  C027  F028         	movff	??_interrupciones,??_interrupciones+1
  1091   000210  6A27               	clrf	??_interrupciones^0,c
  1092   000212  5039               	movf	_periodo^0,w,c
  1093   000214  1027               	iorwf	??_interrupciones^0,w,c
  1094   000216  6E39               	movwf	_periodo^0,c
  1095   000218  503A               	movf	(_periodo+1)^0,w,c
  1096   00021A  1028               	iorwf	(??_interrupciones+1)^0,w,c
  1097   00021C  6E3A               	movwf	(_periodo+1)^0,c
  1098   00021E  503B               	movf	(_periodo+2)^0,w,c
  1099   000220  1029               	iorwf	(??_interrupciones+2)^0,w,c
  1100   000222  6E3B               	movwf	(_periodo+2)^0,c
  1101   000224  503C               	movf	(_periodo+3)^0,w,c
  1102   000226  102A               	iorwf	(??_interrupciones+3)^0,w,c
  1103   000228  6E3C               	movwf	(_periodo+3)^0,c
  1104                           
  1105                           ;main.c: 199:                     }
  1106   00022A  EF18  F002         	goto	i2l1906
  1107   00022E                     i2l1862:
  1108                           
  1109                           ; BSR set to: 14
  1110   00022E  0E05               	movlw	5
  1111   000230  1849               	xorwf	_i^0,w,c
  1112   000232  104A               	iorwf	(_i+1)^0,w,c
  1113   000234  A4D8               	btfss	status,2,c
  1114   000236  EF1F  F001         	goto	i2u127_41
  1115   00023A  EF21  F001         	goto	i2u127_40
  1116   00023E                     i2u127_41:
  1117   00023E  EF46  F001         	goto	i2l1868
  1118   000242                     i2u127_40:
  1119   000242                     
  1120                           ; BSR set to: 14
  1121                           ;main.c: 201:                         periodo=periodo | (uint32_t)SSP2BUF;
  1122   000242  5039               	movf	_periodo^0,w,c
  1123   000244  118D               	iorwf	141,w,b	;volatile
  1124   000246  6E39               	movwf	_periodo^0,c
  1125   000248  503A               	movf	(_periodo+1)^0,w,c
  1126   00024A  6E3A               	movwf	(_periodo+1)^0,c
  1127   00024C  503B               	movf	(_periodo+2)^0,w,c
  1128   00024E  6E3B               	movwf	(_periodo+2)^0,c
  1129   000250  503C               	movf	(_periodo+3)^0,w,c
  1130   000252  6E3C               	movwf	(_periodo+3)^0,c
  1131   000254                     
  1132                           ; BSR set to: 14
  1133                           ;main.c: 202:                         periodo=periodo/100;
  1134   000254  C039  F001         	movff	_periodo,___lldiv@dividend
  1135   000258  C03A  F002         	movff	_periodo+1,___lldiv@dividend+1
  1136   00025C  C03B  F003         	movff	_periodo+2,___lldiv@dividend+2
  1137   000260  C03C  F004         	movff	_periodo+3,___lldiv@dividend+3
  1138   000264  0E64               	movlw	100
  1139   000266  6E05               	movwf	___lldiv@divisor^0,c
  1140   000268  0E00               	movlw	0
  1141   00026A  6E06               	movwf	(___lldiv@divisor+1)^0,c
  1142   00026C  0E00               	movlw	0
  1143   00026E  6E07               	movwf	(___lldiv@divisor+2)^0,c
  1144   000270  0E00               	movlw	0
  1145   000272  6E08               	movwf	(___lldiv@divisor+3)^0,c
  1146   000274  EC3E  F006         	call	___lldiv	;wreg free
  1147   000278  C001  F039         	movff	?___lldiv,_periodo
  1148   00027C  C002  F03A         	movff	?___lldiv+1,_periodo+1
  1149   000280  C003  F03B         	movff	?___lldiv+2,_periodo+2
  1150   000284  C004  F03C         	movff	?___lldiv+3,_periodo+3
  1151                           
  1152                           ;main.c: 203:                     }
  1153   000288  EF18  F002         	goto	i2l1906
  1154   00028C                     i2l1868:
  1155                           
  1156                           ; BSR set to: 14
  1157   00028C  0E06               	movlw	6
  1158   00028E  1849               	xorwf	_i^0,w,c
  1159   000290  104A               	iorwf	(_i+1)^0,w,c
  1160   000292  A4D8               	btfss	status,2,c
  1161   000294  EF4E  F001         	goto	i2u128_41
  1162   000298  EF50  F001         	goto	i2u128_40
  1163   00029C                     i2u128_41:
  1164   00029C  EF55  F001         	goto	i2l1872
  1165   0002A0                     i2u128_40:
  1166   0002A0                     
  1167                           ; BSR set to: 14
  1168                           ;main.c: 205:                         est_sec=((uint16_t)SSP2BUF << 8);
  1169   0002A0  518D               	movf	141,w,b	;volatile
  1170   0002A2  6E4E               	movwf	(_est_sec+1)^0,c
  1171   0002A4  6A4D               	clrf	_est_sec^0,c
  1172                           
  1173                           ;main.c: 206:                     }
  1174   0002A6  EF18  F002         	goto	i2l1906
  1175   0002AA                     i2l1872:
  1176                           
  1177                           ; BSR set to: 14
  1178   0002AA  0E07               	movlw	7
  1179   0002AC  1849               	xorwf	_i^0,w,c
  1180   0002AE  104A               	iorwf	(_i+1)^0,w,c
  1181   0002B0  A4D8               	btfss	status,2,c
  1182   0002B2  EF5D  F001         	goto	i2u129_41
  1183   0002B6  EF5F  F001         	goto	i2u129_40
  1184   0002BA                     i2u129_41:
  1185   0002BA  EF66  F001         	goto	i2l1876
  1186   0002BE                     i2u129_40:
  1187   0002BE                     
  1188                           ; BSR set to: 14
  1189                           ;main.c: 208:                         est_sec=est_sec | (uint16_t)SSP2BUF;
  1190   0002BE  504D               	movf	_est_sec^0,w,c
  1191   0002C0  118D               	iorwf	141,w,b	;volatile
  1192   0002C2  6E4D               	movwf	_est_sec^0,c
  1193   0002C4  504E               	movf	(_est_sec+1)^0,w,c
  1194   0002C6  6E4E               	movwf	(_est_sec+1)^0,c
  1195                           
  1196                           ;main.c: 209:                     }
  1197   0002C8  EF18  F002         	goto	i2l1906
  1198   0002CC                     i2l1876:
  1199                           
  1200                           ; BSR set to: 14
  1201   0002CC  0E08               	movlw	8
  1202   0002CE  1849               	xorwf	_i^0,w,c
  1203   0002D0  104A               	iorwf	(_i+1)^0,w,c
  1204   0002D2  A4D8               	btfss	status,2,c
  1205   0002D4  EF6E  F001         	goto	i2u130_41
  1206   0002D8  EF70  F001         	goto	i2u130_40
  1207   0002DC                     i2u130_41:
  1208   0002DC  EF75  F001         	goto	i2l1880
  1209   0002E0                     i2u130_40:
  1210   0002E0                     
  1211                           ; BSR set to: 14
  1212                           ;main.c: 211:                         led_group=((uint16_t)SSP2BUF << 8);
  1213   0002E0  518D               	movf	141,w,b	;volatile
  1214   0002E2  6E52               	movwf	(_led_group+1)^0,c
  1215   0002E4  6A51               	clrf	_led_group^0,c
  1216                           
  1217                           ;main.c: 212:                     }
  1218   0002E6  EF18  F002         	goto	i2l1906
  1219   0002EA                     i2l1880:
  1220                           
  1221                           ; BSR set to: 14
  1222   0002EA  0E09               	movlw	9
  1223   0002EC  1849               	xorwf	_i^0,w,c
  1224   0002EE  104A               	iorwf	(_i+1)^0,w,c
  1225   0002F0  A4D8               	btfss	status,2,c
  1226   0002F2  EF7D  F001         	goto	i2u131_41
  1227   0002F6  EF7F  F001         	goto	i2u131_40
  1228   0002FA                     i2u131_41:
  1229   0002FA  EF94  F001         	goto	i2l1886
  1230   0002FE                     i2u131_40:
  1231   0002FE                     
  1232                           ; BSR set to: 14
  1233                           ;main.c: 214:                         led_group=led_group | (uint16_t)SSP2BUF;
  1234   0002FE  5051               	movf	_led_group^0,w,c
  1235   000300  118D               	iorwf	141,w,b	;volatile
  1236   000302  6E51               	movwf	_led_group^0,c
  1237   000304  5052               	movf	(_led_group+1)^0,w,c
  1238   000306  6E52               	movwf	(_led_group+1)^0,c
  1239   000308                     
  1240                           ; BSR set to: 14
  1241                           ;main.c: 215:                         pixel=ini_array(est_sec,led_group);
  1242   000308  C04D  F021         	movff	_est_sec,ini_array@secu
  1243   00030C  C04E  F022         	movff	_est_sec+1,ini_array@secu+1
  1244   000310  C051  F023         	movff	_led_group,ini_array@led
  1245   000314  C052  F024         	movff	_led_group+1,ini_array@led+1
  1246   000318  EC2B  F007         	call	_ini_array	;wreg free
  1247   00031C  C021  F055         	movff	?_ini_array,_pixel
  1248   000320  C022  F056         	movff	?_ini_array+1,_pixel+1
  1249                           
  1250                           ;main.c: 216:                     }
  1251   000324  EF18  F002         	goto	i2l1906
  1252   000328                     i2l1886:
  1253                           
  1254                           ; BSR set to: 14
  1255   000328  0E0A               	movlw	10
  1256   00032A  1849               	xorwf	_i^0,w,c
  1257   00032C  104A               	iorwf	(_i+1)^0,w,c
  1258   00032E  A4D8               	btfss	status,2,c
  1259   000330  EF9C  F001         	goto	i2u132_41
  1260   000334  EF9E  F001         	goto	i2u132_40
  1261   000338                     i2u132_41:
  1262   000338  EFB2  F001         	goto	i2l1890
  1263   00033C                     i2u132_40:
  1264   00033C                     
  1265                           ; BSR set to: 14
  1266                           ;main.c: 218:                         rep=((uint32_t)SSP2BUF << 24);
  1267   00033C  CE8D F027          	movff	3725,??_interrupciones	;volatile
  1268   000340  6A28               	clrf	(??_interrupciones+1)^0,c
  1269   000342  6A29               	clrf	(??_interrupciones+2)^0,c
  1270   000344  6A2A               	clrf	(??_interrupciones+3)^0,c
  1271   000346  C027  F02A         	movff	??_interrupciones,??_interrupciones+3
  1272   00034A  6A29               	clrf	(??_interrupciones+2)^0,c
  1273   00034C  6A28               	clrf	(??_interrupciones+1)^0,c
  1274   00034E  6A27               	clrf	??_interrupciones^0,c
  1275   000350  C027  F035         	movff	??_interrupciones,_rep
  1276   000354  C028  F036         	movff	??_interrupciones+1,_rep+1
  1277   000358  C029  F037         	movff	??_interrupciones+2,_rep+2
  1278   00035C  C02A  F038         	movff	??_interrupciones+3,_rep+3
  1279                           
  1280                           ;main.c: 219:                     }
  1281   000360  EF18  F002         	goto	i2l1906
  1282   000364                     i2l1890:
  1283                           
  1284                           ; BSR set to: 14
  1285   000364  0E0B               	movlw	11
  1286   000366  1849               	xorwf	_i^0,w,c
  1287   000368  104A               	iorwf	(_i+1)^0,w,c
  1288   00036A  A4D8               	btfss	status,2,c
  1289   00036C  EFBA  F001         	goto	i2u133_41
  1290   000370  EFBC  F001         	goto	i2u133_40
  1291   000374                     i2u133_41:
  1292   000374  EFD5  F001         	goto	i2l1894
  1293   000378                     i2u133_40:
  1294   000378                     
  1295                           ; BSR set to: 14
  1296                           ;main.c: 221:                         rep=rep | ((uint32_t)SSP2BUF << 16);
  1297   000378  CE8D F027          	movff	3725,??_interrupciones	;volatile
  1298   00037C  6A28               	clrf	(??_interrupciones+1)^0,c
  1299   00037E  6A29               	clrf	(??_interrupciones+2)^0,c
  1300   000380  6A2A               	clrf	(??_interrupciones+3)^0,c
  1301   000382  C028  F02A         	movff	??_interrupciones+1,??_interrupciones+3
  1302   000386  C027  F029         	movff	??_interrupciones,??_interrupciones+2
  1303   00038A  6A28               	clrf	(??_interrupciones+1)^0,c
  1304   00038C  6A27               	clrf	??_interrupciones^0,c
  1305   00038E  5035               	movf	_rep^0,w,c
  1306   000390  1027               	iorwf	??_interrupciones^0,w,c
  1307   000392  6E35               	movwf	_rep^0,c
  1308   000394  5036               	movf	(_rep+1)^0,w,c
  1309   000396  1028               	iorwf	(??_interrupciones+1)^0,w,c
  1310   000398  6E36               	movwf	(_rep+1)^0,c
  1311   00039A  5037               	movf	(_rep+2)^0,w,c
  1312   00039C  1029               	iorwf	(??_interrupciones+2)^0,w,c
  1313   00039E  6E37               	movwf	(_rep+2)^0,c
  1314   0003A0  5038               	movf	(_rep+3)^0,w,c
  1315   0003A2  102A               	iorwf	(??_interrupciones+3)^0,w,c
  1316   0003A4  6E38               	movwf	(_rep+3)^0,c
  1317                           
  1318                           ;main.c: 222:                     }
  1319   0003A6  EF18  F002         	goto	i2l1906
  1320   0003AA                     i2l1894:
  1321                           
  1322                           ; BSR set to: 14
  1323   0003AA  0E0C               	movlw	12
  1324   0003AC  1849               	xorwf	_i^0,w,c
  1325   0003AE  104A               	iorwf	(_i+1)^0,w,c
  1326   0003B0  A4D8               	btfss	status,2,c
  1327   0003B2  EFDD  F001         	goto	i2u134_41
  1328   0003B6  EFDF  F001         	goto	i2u134_40
  1329   0003BA                     i2u134_41:
  1330   0003BA  EFF9  F001         	goto	i2l1898
  1331   0003BE                     i2u134_40:
  1332   0003BE                     
  1333                           ; BSR set to: 14
  1334                           ;main.c: 224:                         rep=rep | ((uint32_t)SSP2BUF << 8);
  1335   0003BE  CE8D F027          	movff	3725,??_interrupciones	;volatile
  1336   0003C2  6A28               	clrf	(??_interrupciones+1)^0,c
  1337   0003C4  6A29               	clrf	(??_interrupciones+2)^0,c
  1338   0003C6  6A2A               	clrf	(??_interrupciones+3)^0,c
  1339   0003C8  C029  F02A         	movff	??_interrupciones+2,??_interrupciones+3
  1340   0003CC  C028  F029         	movff	??_interrupciones+1,??_interrupciones+2
  1341   0003D0  C027  F028         	movff	??_interrupciones,??_interrupciones+1
  1342   0003D4  6A27               	clrf	??_interrupciones^0,c
  1343   0003D6  5035               	movf	_rep^0,w,c
  1344   0003D8  1027               	iorwf	??_interrupciones^0,w,c
  1345   0003DA  6E35               	movwf	_rep^0,c
  1346   0003DC  5036               	movf	(_rep+1)^0,w,c
  1347   0003DE  1028               	iorwf	(??_interrupciones+1)^0,w,c
  1348   0003E0  6E36               	movwf	(_rep+1)^0,c
  1349   0003E2  5037               	movf	(_rep+2)^0,w,c
  1350   0003E4  1029               	iorwf	(??_interrupciones+2)^0,w,c
  1351   0003E6  6E37               	movwf	(_rep+2)^0,c
  1352   0003E8  5038               	movf	(_rep+3)^0,w,c
  1353   0003EA  102A               	iorwf	(??_interrupciones+3)^0,w,c
  1354   0003EC  6E38               	movwf	(_rep+3)^0,c
  1355                           
  1356                           ;main.c: 225:                     }
  1357   0003EE  EF18  F002         	goto	i2l1906
  1358   0003F2                     i2l1898:
  1359                           
  1360                           ; BSR set to: 14
  1361   0003F2  0E0D               	movlw	13
  1362   0003F4  1849               	xorwf	_i^0,w,c
  1363   0003F6  104A               	iorwf	(_i+1)^0,w,c
  1364   0003F8  A4D8               	btfss	status,2,c
  1365   0003FA  EF01  F002         	goto	i2u135_41
  1366   0003FE  EF03  F002         	goto	i2u135_40
  1367   000402                     i2u135_41:
  1368   000402  EF0E  F002         	goto	i2l1902
  1369   000406                     i2u135_40:
  1370   000406                     
  1371                           ; BSR set to: 14
  1372                           ;main.c: 227:                         rep=rep | (uint32_t)SSP2BUF;
  1373   000406  5035               	movf	_rep^0,w,c
  1374   000408  118D               	iorwf	141,w,b	;volatile
  1375   00040A  6E35               	movwf	_rep^0,c
  1376   00040C  5036               	movf	(_rep+1)^0,w,c
  1377   00040E  6E36               	movwf	(_rep+1)^0,c
  1378   000410  5037               	movf	(_rep+2)^0,w,c
  1379   000412  6E37               	movwf	(_rep+2)^0,c
  1380   000414  5038               	movf	(_rep+3)^0,w,c
  1381   000416  6E38               	movwf	(_rep+3)^0,c
  1382                           
  1383                           ;main.c: 228:                     }
  1384   000418  EF18  F002         	goto	i2l1906
  1385   00041C                     i2l1902:
  1386                           
  1387                           ; BSR set to: 14
  1388                           ;main.c: 230:                         set_pixel_color(contador,SSP2BUF);
  1389   00041C  C047  F007         	movff	_contador,set_pixel_color@m
  1390   000420  C048  F008         	movff	_contador+1,set_pixel_color@m+1
  1391   000424  CE8D F009          	movff	3725,set_pixel_color@c	;volatile
  1392   000428  ECED  F006         	call	_set_pixel_color	;wreg free
  1393   00042C                     
  1394                           ;main.c: 231:                         contador++;
  1395   00042C  4A47               	infsnz	_contador^0,f,c
  1396   00042E  2A48               	incf	(_contador+1)^0,f,c
  1397   000430                     i2l1906:
  1398                           
  1399                           ;main.c: 233:                     i++;
  1400   000430  4A49               	infsnz	_i^0,f,c
  1401   000432  2A4A               	incf	(_i+1)^0,f,c
  1402   000434                     
  1403                           ;main.c: 234:                     SSP2CON1bits.CKP=1;
  1404   000434  010E               	movlb	14	; () banked
  1405   000436  8991               	bsf	145,4,b	;volatile
  1406                           
  1407                           ;main.c: 235:                 }
  1408   000438  EF20  F002         	goto	i2l154
  1409   00043C                     i2l160:
  1410                           
  1411                           ; BSR set to: 14
  1412                           ;main.c: 237:                     dummy=SSP2BUF;
  1413   00043C  CE8D F057          	movff	3725,_dummy	;volatile
  1414   000440                     i2l154:
  1415                           
  1416                           ;main.c: 242:     if(PIR0bits.TMR0IF==1 && PIE0bits.TMR0IE==1){
  1417   000440  010E               	movlb	14	; () banked
  1418   000442  ABC5               	btfss	197,5,b	;volatile
  1419   000444  EF26  F002         	goto	i2u136_41
  1420   000448  EF28  F002         	goto	i2u136_40
  1421   00044C                     i2u136_41:
  1422   00044C  EF51  F002         	goto	i2l192
  1423   000450                     i2u136_40:
  1424   000450                     
  1425                           ; BSR set to: 14
  1426   000450  ABBD               	btfss	189,5,b	;volatile
  1427   000452  EF2D  F002         	goto	i2u137_41
  1428   000456  EF2F  F002         	goto	i2u137_40
  1429   00045A                     i2u137_41:
  1430   00045A  EF51  F002         	goto	i2l192
  1431   00045E                     i2u137_40:
  1432   00045E                     
  1433                           ; BSR set to: 14
  1434                           ;main.c: 243:         PIR0bits.TMR0IF=0;
  1435   00045E  9BC5               	bcf	197,5,b	;volatile
  1436   000460                     
  1437                           ; BSR set to: 14
  1438                           ;main.c: 244:         tiempo++;
  1439   000460  0E01               	movlw	1
  1440   000462  0100               	movlb	0	; () banked
  1441   000464  2764               	addwf	_tiempo& (0+255),f,b
  1442   000466  0E00               	movlw	0
  1443   000468  2365               	addwfc	(_tiempo+1)& (0+255),f,b
  1444   00046A  2366               	addwfc	(_tiempo+2)& (0+255),f,b
  1445   00046C  2367               	addwfc	(_tiempo+3)& (0+255),f,b
  1446                           
  1447                           ;main.c: 245:         if(tiempo>=periodo){
  1448   00046E  5039               	movf	_periodo^0,w,c
  1449   000470  5D64               	subwf	_tiempo& (0+255),w,b
  1450   000472  503A               	movf	(_periodo+1)^0,w,c
  1451   000474  5965               	subwfb	(_tiempo+1)& (0+255),w,b
  1452   000476  503B               	movf	(_periodo+2)^0,w,c
  1453   000478  5966               	subwfb	(_tiempo+2)& (0+255),w,b
  1454   00047A  503C               	movf	(_periodo+3)^0,w,c
  1455   00047C  5967               	subwfb	(_tiempo+3)& (0+255),w,b
  1456   00047E  A0D8               	btfss	status,0,c
  1457   000480  EF44  F002         	goto	i2u138_41
  1458   000484  EF46  F002         	goto	i2u138_40
  1459   000488                     i2u138_41:
  1460   000488  EF51  F002         	goto	i2l192
  1461   00048C                     i2u138_40:
  1462   00048C                     
  1463                           ; BSR set to: 0
  1464                           ;main.c: 246:             T0CON0bits.T0EN=0;
  1465   00048C  9ED4               	bcf	212,7,c	;volatile
  1466   00048E                     
  1467                           ; BSR set to: 0
  1468                           ;main.c: 247:             tiempo=0;
  1469   00048E  0E00               	movlw	0
  1470   000490  6F64               	movwf	_tiempo& (0+255),b
  1471   000492  0E00               	movlw	0
  1472   000494  6F65               	movwf	(_tiempo+1)& (0+255),b
  1473   000496  0E00               	movlw	0
  1474   000498  6F66               	movwf	(_tiempo+2)& (0+255),b
  1475   00049A  0E00               	movlw	0
  1476   00049C  6F67               	movwf	(_tiempo+3)& (0+255),b
  1477   00049E                     
  1478                           ; BSR set to: 0
  1479                           ;main.c: 248:             gestion_est_rep();
  1480   00049E  EC8E  F005         	call	_gestion_est_rep	;wreg free
  1481   0004A2                     i2l192:
  1482   0004A2  C030  FFF4         	movff	??_interrupciones+9,prodh
  1483   0004A6  C02F  FFF3         	movff	??_interrupciones+8,prodl
  1484   0004AA  C02E  FFDA         	movff	??_interrupciones+7,fsr2h
  1485   0004AE  C02D  FFD9         	movff	??_interrupciones+6,fsr2l
  1486   0004B2  C02C  FFE2         	movff	??_interrupciones+5,fsr1h
  1487   0004B6  C02B  FFE1         	movff	??_interrupciones+4,fsr1l
  1488   0004BA  925C               	bcf	int$flags,1,c	;clear compiler interrupt flag (level 2)
  1489   0004BC  0011               	retfie		f
  1490   0004BE                     __end_of_interrupciones:
  1491                           	callstack 0
  1492                           
  1493 ;; *************** function _set_pixel_color *****************
  1494 ;; Defined at:
  1495 ;;		line 63 in file "main.c"
  1496 ;; Parameters:    Size  Location     Type
  1497 ;;  m               2    6[COMRAM] unsigned short 
  1498 ;;  c               1    8[COMRAM] unsigned char 
  1499 ;; Auto vars:     Size  Location     Type
  1500 ;;  p               2    9[COMRAM] PTR unsigned char 
  1501 ;;		 -> __heap_hi..(3), __heap_hi(0), RAM(3614), NULL(0), 
  1502 ;; Return value:  Size  Location     Type
  1503 ;;                  1    wreg      void 
  1504 ;; Registers used:
  1505 ;;		wreg, fsr2l, fsr2h, status,2, status,0, prodl, prodh, cstack
  1506 ;; Tracked objects:
  1507 ;;		On entry : 0/0
  1508 ;;		On exit  : 0/0
  1509 ;;		Unchanged: 0/0
  1510 ;; Data sizes:     COMRAM   BANK0   BANK1   BANK2   BANK3   BANK4   BANK5   BANK6   BANK7   BANK8   BANK9  BANK10  BANK1
      +1  BANK12  BANK14
  1511 ;;      Params:         3       0       0       0       0       0       0       0       0       0       0       0       
      +0       0       0
  1512 ;;      Locals:         2       0       0       0       0       0       0       0       0       0       0       0       
      +0       0       0
  1513 ;;      Temps:          0       0       0       0       0       0       0       0       0       0       0       0       
      +0       0       0
  1514 ;;      Totals:         5       0       0       0       0       0       0       0       0       0       0       0       
      +0       0       0
  1515 ;;Total ram usage:        5 bytes
  1516 ;; Hardware stack levels used: 1
  1517 ;; Hardware stack levels required when called: 1
  1518 ;; This function calls:
  1519 ;;		___wmul
  1520 ;; This function is called by:
  1521 ;;		_interrupciones
  1522 ;; This function uses a non-reentrant model
  1523 ;;
  1524                           
  1525                           	psect	text5
  1526   000DDA                     __ptext5:
  1527                           	callstack 0
  1528   000DDA                     _set_pixel_color:
  1529                           	callstack 27
  1530   000DDA                     
  1531                           ;main.c: 64:     if(m<led_group*est_sec){
  1532   000DDA  C051  F001         	movff	_led_group,___wmul@multiplier
  1533   000DDE  C052  F002         	movff	_led_group+1,___wmul@multiplier+1
  1534   000DE2  C04D  F003         	movff	_est_sec,___wmul@multiplicand
  1535   000DE6  C04E  F004         	movff	_est_sec+1,___wmul@multiplicand+1
  1536   000DEA  EC5C  F007         	call	___wmul	;wreg free
  1537   000DEE  5001               	movf	?___wmul^0,w,c
  1538   000DF0  5C07               	subwf	set_pixel_color@m^0,w,c
  1539   000DF2  5002               	movf	(?___wmul+1)^0,w,c
  1540   000DF4  5808               	subwfb	(set_pixel_color@m+1)^0,w,c
  1541   000DF6  B0D8               	btfsc	status,0,c
  1542   000DF8  EF00  F007         	goto	i2u99_41
  1543   000DFC  EF02  F007         	goto	i2u99_40
  1544   000E00                     i2u99_41:
  1545   000E00  EF0E  F007         	goto	i2l113
  1546   000E04                     i2u99_40:
  1547   000E04                     
  1548                           ;main.c: 65:         uint8_t *p=&pixel[m];
  1549   000E04  5007               	movf	set_pixel_color@m^0,w,c
  1550   000E06  2455               	addwf	_pixel^0,w,c
  1551   000E08  6E0A               	movwf	set_pixel_color@p^0,c
  1552   000E0A  5008               	movf	(set_pixel_color@m+1)^0,w,c
  1553   000E0C  2056               	addwfc	(_pixel+1)^0,w,c
  1554   000E0E  6E0B               	movwf	(set_pixel_color@p+1)^0,c
  1555   000E10                     
  1556                           ;main.c: 66:         *p=c;
  1557   000E10  C00A  FFD9         	movff	set_pixel_color@p,fsr2l
  1558   000E14  C00B  FFDA         	movff	set_pixel_color@p+1,fsr2h
  1559   000E18  C009  FFDF         	movff	set_pixel_color@c,indf2
  1560   000E1C                     i2l113:
  1561   000E1C  0012               	return		;funcret
  1562   000E1E                     __end_of_set_pixel_color:
  1563                           	callstack 0
  1564                           
  1565 ;; *************** function _ini_array *****************
  1566 ;; Defined at:
  1567 ;;		line 53 in file "main.c"
  1568 ;; Parameters:    Size  Location     Type
  1569 ;;  secu            2   32[COMRAM] unsigned short 
  1570 ;;  led             2   34[COMRAM] unsigned short 
  1571 ;; Auto vars:     Size  Location     Type
  1572 ;;  array           2   36[COMRAM] PTR unsigned char 
  1573 ;;		 -> __heap_hi..(3), __heap_hi(0), RAM(3614), NULL(0), 
  1574 ;; Return value:  Size  Location     Type
  1575 ;;                  2   32[COMRAM] PTR unsigned char 
  1576 ;; Registers used:
  1577 ;;		wreg, fsr1l, fsr1h, fsr2l, fsr2h, status,2, status,0, prodl, prodh, cstack
  1578 ;; Tracked objects:
  1579 ;;		On entry : 0/0
  1580 ;;		On exit  : 0/0
  1581 ;;		Unchanged: 0/0
  1582 ;; Data sizes:     COMRAM   BANK0   BANK1   BANK2   BANK3   BANK4   BANK5   BANK6   BANK7   BANK8   BANK9  BANK10  BANK1
      +1  BANK12  BANK14
  1583 ;;      Params:         4       0       0       0       0       0       0       0       0       0       0       0       
      +0       0       0
  1584 ;;      Locals:         2       0       0       0       0       0       0       0       0       0       0       0       
      +0       0       0
  1585 ;;      Temps:          0       0       0       0       0       0       0       0       0       0       0       0       
      +0       0       0
  1586 ;;      Totals:         6       0       0       0       0       0       0       0       0       0       0       0       
      +0       0       0
  1587 ;;Total ram usage:        6 bytes
  1588 ;; Hardware stack levels used: 1
  1589 ;; Hardware stack levels required when called: 2
  1590 ;; This function calls:
  1591 ;;		___wmul
  1592 ;;		_malloc
  1593 ;; This function is called by:
  1594 ;;		_interrupciones
  1595 ;; This function uses a non-reentrant model
  1596 ;;
  1597                           
  1598                           	psect	text6
  1599   000E56                     __ptext6:
  1600                           	callstack 0
  1601   000E56                     _ini_array:
  1602                           	callstack 26
  1603   000E56                     
  1604                           ;main.c: 54:     uint8_t* array=(uint8_t*)malloc((secu*led)*sizeof(char));
  1605   000E56  C021  F001         	movff	ini_array@secu,___wmul@multiplier
  1606   000E5A  C022  F002         	movff	ini_array@secu+1,___wmul@multiplier+1
  1607   000E5E  C023  F003         	movff	ini_array@led,___wmul@multiplicand
  1608   000E62  C024  F004         	movff	ini_array@led+1,___wmul@multiplicand+1
  1609   000E66  EC5C  F007         	call	___wmul	;wreg free
  1610   000E6A  C001  F015         	movff	?___wmul,malloc@n
  1611   000E6E  C002  F016         	movff	?___wmul+1,malloc@n+1
  1612   000E72  EC9C  F003         	call	_malloc	;wreg free
  1613   000E76  C015  F025         	movff	?_malloc,ini_array@array
  1614   000E7A  C016  F026         	movff	?_malloc+1,ini_array@array+1
  1615   000E7E                     
  1616                           ;main.c: 55:     return array;
  1617   000E7E  C025  F021         	movff	ini_array@array,?_ini_array
  1618   000E82  C026  F022         	movff	ini_array@array+1,?_ini_array+1
  1619   000E86  0012               	return		;funcret
  1620   000E88                     __end_of_ini_array:
  1621                           	callstack 0
  1622                           
  1623 ;; *************** function _malloc *****************
  1624 ;; Defined at:
  1625 ;;		line 16 in file "C:\Program Files\Microchip\xc8\v2.41\pic\sources\c99\common\lite_malloc.c"
  1626 ;; Parameters:    Size  Location     Type
  1627 ;;  n               2   20[COMRAM] unsigned int 
  1628 ;; Auto vars:     Size  Location     Type
  1629 ;;  sz              2   26[COMRAM] PTR unsigned int 
  1630 ;;		 -> __heap_hi..(3), __heap_hi(0), RAM(3614), NULL(0), 
  1631 ;;  new             2   30[COMRAM] PTR unsigned char 
  1632 ;;		 -> __heap_hi(0), RAM(3614), NULL(0), 
  1633 ;;  m               2   24[COMRAM] unsigned int 
  1634 ;;  p               2   28[COMRAM] PTR void 
  1635 ;;		 -> __heap_hi..(3), __heap_hi(0), RAM(3614), NULL(0), 
  1636 ;;  size            2    0        unsigned int 
  1637 ;; Return value:  Size  Location     Type
  1638 ;;                  2   20[COMRAM] PTR void 
  1639 ;; Registers used:
  1640 ;;		wreg, fsr1l, fsr1h, fsr2l, fsr2h, status,2, status,0, cstack
  1641 ;; Tracked objects:
  1642 ;;		On entry : 0/0
  1643 ;;		On exit  : 0/0
  1644 ;;		Unchanged: 0/0
  1645 ;; Data sizes:     COMRAM   BANK0   BANK1   BANK2   BANK3   BANK4   BANK5   BANK6   BANK7   BANK8   BANK9  BANK10  BANK1
      +1  BANK12  BANK14
  1646 ;;      Params:         2       0       0       0       0       0       0       0       0       0       0       0       
      +0       0       0
  1647 ;;      Locals:         8       0       0       0       0       0       0       0       0       0       0       0       
      +0       0       0
  1648 ;;      Temps:          2       0       0       0       0       0       0       0       0       0       0       0       
      +0       0       0
  1649 ;;      Totals:        12       0       0       0       0       0       0       0       0       0       0       0       
      +0       0       0
  1650 ;;Total ram usage:       12 bytes
  1651 ;; Hardware stack levels used: 1
  1652 ;; Hardware stack levels required when called: 1
  1653 ;; This function calls:
  1654 ;;		___expand_heap
  1655 ;;		___simple_search_fl
  1656 ;; This function is called by:
  1657 ;;		_ini_array
  1658 ;; This function uses a non-reentrant model
  1659 ;;
  1660                           
  1661                           	psect	text7
  1662   000738                     __ptext7:
  1663                           	callstack 0
  1664   000738                     _malloc:
  1665                           	callstack 26
  1666   000738  5015               	movf	malloc@n^0,w,c
  1667   00073A  1016               	iorwf	(malloc@n+1)^0,w,c
  1668   00073C  A4D8               	btfss	status,2,c
  1669   00073E  EFA3  F003         	goto	i2u84_41
  1670   000742  EFA5  F003         	goto	i2u84_40
  1671   000746                     i2u84_41:
  1672   000746  EFA7  F003         	goto	i2l1558
  1673   00074A                     i2u84_40:
  1674   00074A  4A15               	infsnz	malloc@n^0,f,c
  1675   00074C  2A16               	incf	(malloc@n+1)^0,f,c
  1676   00074E                     i2l1558:
  1677   00074E  C041  F041         	movff	malloc@cur,malloc@cur
  1678   000752  C042  F042         	movff	malloc@cur+1,malloc@cur+1
  1679   000756  5016               	movf	(malloc@n+1)^0,w,c
  1680   000758  E107               	bnz	i2u85_41
  1681   00075A  0E04               	movlw	4
  1682   00075C  5C15               	subwf	malloc@n^0,w,c
  1683   00075E  B0D8               	btfsc	status,0,c
  1684   000760  EFB4  F003         	goto	i2u85_41
  1685   000764  EFB6  F003         	goto	i2u85_40
  1686   000768                     i2u85_41:
  1687   000768  EFBC  F003         	goto	i2l1564
  1688   00076C                     i2u85_40:
  1689   00076C  0E00               	movlw	0
  1690   00076E  6E16               	movwf	(malloc@n+1)^0,c
  1691   000770  0E04               	movlw	4
  1692   000772  6E15               	movwf	malloc@n^0,c
  1693   000774  EFD5  F003         	goto	i2l1572
  1694   000778                     i2l1564:
  1695   000778  1C15               	comf	malloc@n^0,w,c
  1696   00077A  6E17               	movwf	??_malloc^0,c
  1697   00077C  1C16               	comf	(malloc@n+1)^0,w,c
  1698   00077E  6E18               	movwf	(??_malloc+1)^0,c
  1699   000780  5018               	movf	(??_malloc+1)^0,w,c
  1700   000782  E107               	bnz	i2u86_41
  1701   000784  0E02               	movlw	2
  1702   000786  5C17               	subwf	??_malloc^0,w,c
  1703   000788  B0D8               	btfsc	status,0,c
  1704   00078A  EFC9  F003         	goto	i2u86_41
  1705   00078E  EFCB  F003         	goto	i2u86_40
  1706   000792                     i2u86_41:
  1707   000792  EFD5  F003         	goto	i2l1572
  1708   000796                     i2u86_40:
  1709   000796  0E00               	movlw	0
  1710   000798  6E44               	movwf	(_errno+1)^0,c
  1711   00079A  0E0C               	movlw	12
  1712   00079C  6E43               	movwf	_errno^0,c
  1713   00079E                     i2l1568:
  1714   00079E  0E00               	movlw	0
  1715   0007A0  6E15               	movwf	?_malloc^0,c
  1716   0007A2  0E00               	movlw	0
  1717   0007A4  6E16               	movwf	(?_malloc+1)^0,c
  1718   0007A6  EF54  F004         	goto	i2l949
  1719   0007AA                     i2l1572:
  1720   0007AA  C015  F001         	movff	malloc@n,___simple_search_fl@n
  1721   0007AE  C016  F002         	movff	malloc@n+1,___simple_search_fl@n+1
  1722   0007B2  EC61  F002         	call	___simple_search_fl	;wreg free
  1723   0007B6  C001  F01D         	movff	?___simple_search_fl,malloc@p
  1724   0007BA  C002  F01E         	movff	?___simple_search_fl+1,malloc@p+1
  1725   0007BE  501D               	movf	malloc@p^0,w,c
  1726   0007C0  101E               	iorwf	(malloc@p+1)^0,w,c
  1727   0007C2  A4D8               	btfss	status,2,c
  1728   0007C4  EFE6  F003         	goto	i2u87_41
  1729   0007C8  EFE8  F003         	goto	i2u87_40
  1730   0007CC                     i2u87_41:
  1731   0007CC  EF50  F004         	goto	i2l1604
  1732   0007D0                     i2u87_40:
  1733   0007D0  5041               	movf	malloc@cur^0,w,c
  1734   0007D2  5C3F               	subwf	malloc@end^0,w,c
  1735   0007D4  6E17               	movwf	??_malloc^0,c
  1736   0007D6  5042               	movf	(malloc@cur+1)^0,w,c
  1737   0007D8  5840               	subwfb	(malloc@end+1)^0,w,c
  1738   0007DA  6E18               	movwf	(??_malloc+1)^0,c
  1739   0007DC  5015               	movf	malloc@n^0,w,c
  1740   0007DE  5C17               	subwf	??_malloc^0,w,c
  1741   0007E0  5016               	movf	(malloc@n+1)^0,w,c
  1742   0007E2  5818               	subwfb	(??_malloc+1)^0,w,c
  1743   0007E4  B0D8               	btfsc	status,0,c
  1744   0007E6  EFF7  F003         	goto	i2u88_41
  1745   0007EA  EFF9  F003         	goto	i2u88_40
  1746   0007EE                     i2u88_41:
  1747   0007EE  EF2E  F004         	goto	i2l951
  1748   0007F2                     i2u88_40:
  1749   0007F2  0E02               	movlw	2
  1750   0007F4  2415               	addwf	malloc@n^0,w,c
  1751   0007F6  6E19               	movwf	malloc@m^0,c
  1752   0007F8  0E00               	movlw	0
  1753   0007FA  2016               	addwfc	(malloc@n+1)^0,w,c
  1754   0007FC  6E1A               	movwf	(malloc@m+1)^0,c
  1755   0007FE  0E19               	movlw	low malloc@m
  1756   000800  6E01               	movwf	___expand_heap@pn^0,c
  1757   000802  0E00               	movlw	high malloc@m
  1758   000804  6E02               	movwf	(___expand_heap@pn+1)^0,c
  1759   000806  ECE7  F005         	call	___expand_heap	;wreg free
  1760   00080A  C001  F01F         	movff	?___expand_heap,malloc@new
  1761   00080E  C002  F020         	movff	?___expand_heap+1,malloc@new+1
  1762   000812  501F               	movf	malloc@new^0,w,c
  1763   000814  1020               	iorwf	(malloc@new+1)^0,w,c
  1764   000816  A4D8               	btfss	status,2,c
  1765   000818  EF10  F004         	goto	i2u89_41
  1766   00081C  EF12  F004         	goto	i2u89_40
  1767   000820                     i2u89_41:
  1768   000820  EF14  F004         	goto	i2l1590
  1769   000824                     i2u89_40:
  1770   000824  EFCF  F003         	goto	i2l1568
  1771   000828                     i2l1590:
  1772   000828  C01F  F01F         	movff	malloc@new,malloc@new
  1773   00082C  C020  F020         	movff	malloc@new+1,malloc@new+1
  1774   000830  503F               	movf	malloc@end^0,w,c
  1775   000832  181F               	xorwf	malloc@new^0,w,c
  1776   000834  E109               	bnz	i2u90_40
  1777   000836  5040               	movf	(malloc@end+1)^0,w,c
  1778   000838  1820               	xorwf	(malloc@new+1)^0,w,c
  1779   00083A  B4D8               	btfsc	status,2,c
  1780   00083C  EF22  F004         	goto	i2u90_41
  1781   000840  EF24  F004         	goto	i2u90_40
  1782   000844                     i2u90_41:
  1783   000844  EF28  F004         	goto	i2l953
  1784   000848                     i2u90_40:
  1785   000848  C01F  F041         	movff	malloc@new,malloc@cur
  1786   00084C  C020  F042         	movff	malloc@new+1,malloc@cur+1
  1787   000850                     i2l953:
  1788   000850  5019               	movf	malloc@m^0,w,c
  1789   000852  241F               	addwf	malloc@new^0,w,c
  1790   000854  6E3F               	movwf	malloc@end^0,c
  1791   000856  501A               	movf	(malloc@m+1)^0,w,c
  1792   000858  2020               	addwfc	(malloc@new+1)^0,w,c
  1793   00085A  6E40               	movwf	(malloc@end+1)^0,c
  1794   00085C                     i2l951:
  1795   00085C  C041  F01D         	movff	malloc@cur,malloc@p
  1796   000860  C042  F01E         	movff	malloc@cur+1,malloc@p+1
  1797   000864  C01D  F01B         	movff	malloc@p,malloc@sz
  1798   000868  C01E  F01C         	movff	malloc@p+1,malloc@sz+1
  1799   00086C  C01B  FFD9         	movff	malloc@sz,fsr2l
  1800   000870  C01C  FFDA         	movff	malloc@sz+1,fsr2h
  1801   000874  C015  FFDE         	movff	malloc@n,postinc2
  1802   000878  C016  FFDD         	movff	malloc@n+1,postdec2
  1803   00087C  0E02               	movlw	2
  1804   00087E  261B               	addwf	malloc@sz^0,f,c
  1805   000880  0E00               	movlw	0
  1806   000882  221C               	addwfc	(malloc@sz+1)^0,f,c
  1807   000884  C01B  F01D         	movff	malloc@sz,malloc@p
  1808   000888  C01C  F01E         	movff	malloc@sz+1,malloc@p+1
  1809   00088C  0E02               	movlw	2
  1810   00088E  2415               	addwf	malloc@n^0,w,c
  1811   000890  6E17               	movwf	??_malloc^0,c
  1812   000892  0E00               	movlw	0
  1813   000894  2016               	addwfc	(malloc@n+1)^0,w,c
  1814   000896  6E18               	movwf	(??_malloc+1)^0,c
  1815   000898  5017               	movf	??_malloc^0,w,c
  1816   00089A  2641               	addwf	malloc@cur^0,f,c
  1817   00089C  5018               	movf	(??_malloc+1)^0,w,c
  1818   00089E  2242               	addwfc	(malloc@cur+1)^0,f,c
  1819   0008A0                     i2l1604:
  1820   0008A0  C01D  F015         	movff	malloc@p,?_malloc
  1821   0008A4  C01E  F016         	movff	malloc@p+1,?_malloc+1
  1822   0008A8                     i2l949:
  1823   0008A8  0012               	return		;funcret
  1824   0008AA                     __end_of_malloc:
  1825                           	callstack 0
  1826                           
  1827 ;; *************** function ___simple_search_fl *****************
  1828 ;; Defined at:
  1829 ;;		line 19 in file "C:\Program Files\Microchip\xc8\v2.41\pic\sources\c99\common\lite_free.c"
  1830 ;; Parameters:    Size  Location     Type
  1831 ;;  n               2    0[COMRAM] unsigned int 
  1832 ;; Auto vars:     Size  Location     Type
  1833 ;;  split           2   10[COMRAM] PTR struct chunk
  1834 ;;		 -> __heap_hi..(3), __heap_hi(0), RAM(3614), NULL(0), 
  1835 ;;  remaining_si    2    6[COMRAM] unsigned int 
  1836 ;;  next            2   14[COMRAM] PTR struct chunk
  1837 ;;		 -> __heap_hi..(3), __heap_hi(0), RAM(3614), NULL(0), 
  1838 ;;  best            2   18[COMRAM] PTR struct chunk
  1839 ;;		 -> __heap_hi..(3), __heap_hi(0), RAM(3614), NULL(0), 
  1840 ;;  c               2   16[COMRAM] PTR struct chunk
  1841 ;;		 -> __heap_hi..(3), __heap_hi(0), RAM(3614), NULL(0), 
  1842 ;;  last            2   12[COMRAM] PTR struct chunk
  1843 ;;		 -> __heap_hi..(3), __heap_hi(0), RAM(3614), NULL(0), 
  1844 ;;  best_last       2    8[COMRAM] PTR struct chunk
  1845 ;;		 -> __heap_hi..(3), __heap_hi(0), RAM(3614), NULL(0), 
  1846 ;; Return value:  Size  Location     Type
  1847 ;;                  2    0[COMRAM] PTR void 
  1848 ;; Registers used:
  1849 ;;		wreg, fsr1l, fsr1h, fsr2l, fsr2h, status,2, status,0
  1850 ;; Tracked objects:
  1851 ;;		On entry : 0/0
  1852 ;;		On exit  : 0/0
  1853 ;;		Unchanged: 0/0
  1854 ;; Data sizes:     COMRAM   BANK0   BANK1   BANK2   BANK3   BANK4   BANK5   BANK6   BANK7   BANK8   BANK9  BANK10  BANK1
      +1  BANK12  BANK14
  1855 ;;      Params:         2       0       0       0       0       0       0       0       0       0       0       0       
      +0       0       0
  1856 ;;      Locals:        14       0       0       0       0       0       0       0       0       0       0       0       
      +0       0       0
  1857 ;;      Temps:          4       0       0       0       0       0       0       0       0       0       0       0       
      +0       0       0
  1858 ;;      Totals:        20       0       0       0       0       0       0       0       0       0       0       0       
      +0       0       0
  1859 ;;Total ram usage:       20 bytes
  1860 ;; Hardware stack levels used: 1
  1861 ;; This function calls:
  1862 ;;		Nothing
  1863 ;; This function is called by:
  1864 ;;		_malloc
  1865 ;; This function uses a non-reentrant model
  1866 ;;
  1867                           
  1868                           	psect	text8
  1869   0004C2                     __ptext8:
  1870                           	callstack 0
  1871   0004C2                     ___simple_search_fl:
  1872                           	callstack 26
  1873   0004C2  0E00               	movlw	0
  1874   0004C4  6E13               	movwf	___simple_search_fl@best^0,c
  1875   0004C6  0E00               	movlw	0
  1876   0004C8  6E14               	movwf	(___simple_search_fl@best+1)^0,c
  1877   0004CA  0E00               	movlw	0
  1878   0004CC  6E09               	movwf	___simple_search_fl@best_last^0,c
  1879   0004CE  0E00               	movlw	0
  1880   0004D0  6E0A               	movwf	(___simple_search_fl@best_last+1)^0,c
  1881   0004D2  0E00               	movlw	0
  1882   0004D4  6E0D               	movwf	___simple_search_fl@last^0,c
  1883   0004D6  0E00               	movlw	0
  1884   0004D8  6E0E               	movwf	(___simple_search_fl@last+1)^0,c
  1885   0004DA  5045               	movf	___freelist^0,w,c
  1886   0004DC  1046               	iorwf	(___freelist+1)^0,w,c
  1887   0004DE  A4D8               	btfss	status,2,c
  1888   0004E0  EF74  F002         	goto	i2u70_41
  1889   0004E4  EF76  F002         	goto	i2u70_40
  1890   0004E8                     i2u70_41:
  1891   0004E8  EF7C  F002         	goto	i2l1474
  1892   0004EC                     i2u70_40:
  1893   0004EC                     i2l1470:
  1894   0004EC  0E00               	movlw	0
  1895   0004EE  6E01               	movwf	?___simple_search_fl^0,c
  1896   0004F0  0E00               	movlw	0
  1897   0004F2  6E02               	movwf	(?___simple_search_fl+1)^0,c
  1898   0004F4  EF9B  F003         	goto	i2l905
  1899   0004F8                     i2l1474:
  1900   0004F8  C045  F011         	movff	___freelist,___simple_search_fl@c
  1901   0004FC  C046  F012         	movff	___freelist+1,___simple_search_fl@c+1
  1902   000500  EF02  F003         	goto	i2l1500
  1903   000504                     i2l1476:
  1904   000504  C011  FFD9         	movff	___simple_search_fl@c,fsr2l
  1905   000508  C012  FFDA         	movff	___simple_search_fl@c+1,fsr2h
  1906   00050C  5001               	movf	___simple_search_fl@n^0,w,c
  1907   00050E  18DE               	xorwf	postinc2,w,c
  1908   000510  E107               	bnz	i2u71_41
  1909   000512  5002               	movf	(___simple_search_fl@n+1)^0,w,c
  1910   000514  18DE               	xorwf	postinc2,w,c
  1911   000516  A4D8               	btfss	status,2,c
  1912   000518  EF90  F002         	goto	i2u71_41
  1913   00051C  EF92  F002         	goto	i2u71_40
  1914   000520                     i2u71_41:
  1915   000520  EFBF  F002         	goto	i2l1488
  1916   000524                     i2u71_40:
  1917   000524  500D               	movf	___simple_search_fl@last^0,w,c
  1918   000526  100E               	iorwf	(___simple_search_fl@last+1)^0,w,c
  1919   000528  B4D8               	btfsc	status,2,c
  1920   00052A  EF99  F002         	goto	i2u72_41
  1921   00052E  EF9B  F002         	goto	i2u72_40
  1922   000532                     i2u72_41:
  1923   000532  EFAD  F002         	goto	i2l1482
  1924   000536                     i2u72_40:
  1925   000536  EE20 F002          	lfsr	2,2
  1926   00053A  5011               	movf	___simple_search_fl@c^0,w,c
  1927   00053C  26D9               	addwf	fsr2l,f,c
  1928   00053E  5012               	movf	(___simple_search_fl@c+1)^0,w,c
  1929   000540  22DA               	addwfc	fsr2h,f,c
  1930   000542  EE10 F002          	lfsr	1,2
  1931   000546  500D               	movf	___simple_search_fl@last^0,w,c
  1932   000548  26E1               	addwf	fsr1l,f,c
  1933   00054A  500E               	movf	(___simple_search_fl@last+1)^0,w,c
  1934   00054C  22E2               	addwfc	fsr1h,f,c
  1935   00054E  CFDE FFE6          	movff	postinc2,postinc1
  1936   000552  CFDD FFE5          	movff	postdec2,postdec1
  1937   000556  EFB7  F002         	goto	i2l1484
  1938   00055A                     i2l1482:
  1939   00055A  EE20 F002          	lfsr	2,2
  1940   00055E  5011               	movf	___simple_search_fl@c^0,w,c
  1941   000560  26D9               	addwf	fsr2l,f,c
  1942   000562  5012               	movf	(___simple_search_fl@c+1)^0,w,c
  1943   000564  22DA               	addwfc	fsr2h,f,c
  1944   000566  CFDE F045          	movff	postinc2,___freelist
  1945   00056A  CFDD F046          	movff	postdec2,___freelist+1
  1946   00056E                     i2l1484:
  1947   00056E  0E02               	movlw	2
  1948   000570  2411               	addwf	___simple_search_fl@c^0,w,c
  1949   000572  6E01               	movwf	?___simple_search_fl^0,c
  1950   000574  0E00               	movlw	0
  1951   000576  2012               	addwfc	(___simple_search_fl@c+1)^0,w,c
  1952   000578  6E02               	movwf	(?___simple_search_fl+1)^0,c
  1953   00057A  EF9B  F003         	goto	i2l905
  1954   00057E                     i2l1488:
  1955   00057E  C011  FFD9         	movff	___simple_search_fl@c,fsr2l
  1956   000582  C012  FFDA         	movff	___simple_search_fl@c+1,fsr2h
  1957   000586  50DE               	movf	postinc2,w,c
  1958   000588  5C01               	subwf	___simple_search_fl@n^0,w,c
  1959   00058A  50DE               	movf	postinc2,w,c
  1960   00058C  5802               	subwfb	(___simple_search_fl@n+1)^0,w,c
  1961   00058E  B0D8               	btfsc	status,0,c
  1962   000590  EFCC  F002         	goto	i2u73_41
  1963   000594  EFCE  F002         	goto	i2u73_40
  1964   000598                     i2u73_41:
  1965   000598  EFF4  F002         	goto	i2l913
  1966   00059C                     i2u73_40:
  1967   00059C  5013               	movf	___simple_search_fl@best^0,w,c
  1968   00059E  1014               	iorwf	(___simple_search_fl@best+1)^0,w,c
  1969   0005A0  B4D8               	btfsc	status,2,c
  1970   0005A2  EFD5  F002         	goto	i2u74_41
  1971   0005A6  EFD7  F002         	goto	i2u74_40
  1972   0005AA                     i2u74_41:
  1973   0005AA  EFEC  F002         	goto	i2l1496
  1974   0005AE                     i2u74_40:
  1975   0005AE  C013  FFD9         	movff	___simple_search_fl@best,fsr2l
  1976   0005B2  C014  FFDA         	movff	___simple_search_fl@best+1,fsr2h
  1977   0005B6  C011  FFE1         	movff	___simple_search_fl@c,fsr1l
  1978   0005BA  C012  FFE2         	movff	___simple_search_fl@c+1,fsr1h
  1979   0005BE  50DE               	movf	postinc2,w,c
  1980   0005C0  5CE6               	subwf	postinc1,w,c
  1981   0005C2  50DE               	movf	postinc2,w,c
  1982   0005C4  58E6               	subwfb	postinc1,w,c
  1983   0005C6  A0D8               	btfss	status,0,c
  1984   0005C8  EFE8  F002         	goto	i2u75_41
  1985   0005CC  EFEA  F002         	goto	i2u75_40
  1986   0005D0                     i2u75_41:
  1987   0005D0  EFEC  F002         	goto	i2l1496
  1988   0005D4                     i2u75_40:
  1989   0005D4  EFF4  F002         	goto	i2l913
  1990   0005D8                     i2l1496:
  1991   0005D8  C011  F013         	movff	___simple_search_fl@c,___simple_search_fl@best
  1992   0005DC  C012  F014         	movff	___simple_search_fl@c+1,___simple_search_fl@best+1
  1993   0005E0  C00D  F009         	movff	___simple_search_fl@last,___simple_search_fl@best_last
  1994   0005E4  C00E  F00A         	movff	___simple_search_fl@last+1,___simple_search_fl@best_last+1
  1995   0005E8                     i2l913:
  1996   0005E8  C011  F00D         	movff	___simple_search_fl@c,___simple_search_fl@last
  1997   0005EC  C012  F00E         	movff	___simple_search_fl@c+1,___simple_search_fl@last+1
  1998   0005F0  EE20 F002          	lfsr	2,2
  1999   0005F4  5011               	movf	___simple_search_fl@c^0,w,c
  2000   0005F6  26D9               	addwf	fsr2l,f,c
  2001   0005F8  5012               	movf	(___simple_search_fl@c+1)^0,w,c
  2002   0005FA  22DA               	addwfc	fsr2h,f,c
  2003   0005FC  CFDE F011          	movff	postinc2,___simple_search_fl@c
  2004   000600  CFDD F012          	movff	postdec2,___simple_search_fl@c+1
  2005   000604                     i2l1500:
  2006   000604  5011               	movf	___simple_search_fl@c^0,w,c
  2007   000606  1012               	iorwf	(___simple_search_fl@c+1)^0,w,c
  2008   000608  A4D8               	btfss	status,2,c
  2009   00060A  EF09  F003         	goto	i2u76_41
  2010   00060E  EF0B  F003         	goto	i2u76_40
  2011   000612                     i2u76_41:
  2012   000612  EF82  F002         	goto	i2l1476
  2013   000616                     i2u76_40:
  2014   000616  5013               	movf	___simple_search_fl@best^0,w,c
  2015   000618  1014               	iorwf	(___simple_search_fl@best+1)^0,w,c
  2016   00061A  B4D8               	btfsc	status,2,c
  2017   00061C  EF12  F003         	goto	i2u77_41
  2018   000620  EF14  F003         	goto	i2u77_40
  2019   000624                     i2u77_41:
  2020   000624  EF76  F002         	goto	i2l1470
  2021   000628                     i2u77_40:
  2022   000628  EE20 F002          	lfsr	2,2
  2023   00062C  5013               	movf	___simple_search_fl@best^0,w,c
  2024   00062E  26D9               	addwf	fsr2l,f,c
  2025   000630  5014               	movf	(___simple_search_fl@best+1)^0,w,c
  2026   000632  22DA               	addwfc	fsr2h,f,c
  2027   000634  CFDE F00F          	movff	postinc2,___simple_search_fl@next
  2028   000638  CFDD F010          	movff	postdec2,___simple_search_fl@next+1
  2029   00063C  C013  FFD9         	movff	___simple_search_fl@best,fsr2l
  2030   000640  C014  FFDA         	movff	___simple_search_fl@best+1,fsr2h
  2031   000644  CFDE F003          	movff	postinc2,??___simple_search_fl
  2032   000648  CFDD F004          	movff	postdec2,??___simple_search_fl+1
  2033   00064C  5001               	movf	___simple_search_fl@n^0,w,c
  2034   00064E  5E03               	subwf	??___simple_search_fl^0,f,c
  2035   000650  5002               	movf	(___simple_search_fl@n+1)^0,w,c
  2036   000652  5A04               	subwfb	(??___simple_search_fl+1)^0,f,c
  2037   000654  5004               	movf	(??___simple_search_fl+1)^0,w,c
  2038   000656  E109               	bnz	i2u78_40
  2039   000658  0E05               	movlw	5
  2040   00065A  5C03               	subwf	??___simple_search_fl^0,w,c
  2041   00065C  A0D8               	btfss	status,0,c
  2042   00065E  EF33  F003         	goto	i2u78_41
  2043   000662  EF35  F003         	goto	i2u78_40
  2044   000666                     i2u78_41:
  2045   000666  EF79  F003         	goto	i2l916
  2046   00066A                     i2u78_40:
  2047   00066A  C013  FFD9         	movff	___simple_search_fl@best,fsr2l
  2048   00066E  C014  FFDA         	movff	___simple_search_fl@best+1,fsr2h
  2049   000672  CFDE F003          	movff	postinc2,??___simple_search_fl
  2050   000676  CFDD F004          	movff	postdec2,??___simple_search_fl+1
  2051   00067A  5001               	movf	___simple_search_fl@n^0,w,c
  2052   00067C  5E03               	subwf	??___simple_search_fl^0,f,c
  2053   00067E  5002               	movf	(___simple_search_fl@n+1)^0,w,c
  2054   000680  5A04               	subwfb	(??___simple_search_fl+1)^0,f,c
  2055   000682  0EFE               	movlw	254
  2056   000684  2403               	addwf	??___simple_search_fl^0,w,c
  2057   000686  6E07               	movwf	___simple_search_fl@remaining_size^0,c
  2058   000688  0EFF               	movlw	255
  2059   00068A  2004               	addwfc	(??___simple_search_fl+1)^0,w,c
  2060   00068C  6E08               	movwf	(___simple_search_fl@remaining_size+1)^0,c
  2061   00068E  C013  FFD9         	movff	___simple_search_fl@best,fsr2l
  2062   000692  C014  FFDA         	movff	___simple_search_fl@best+1,fsr2h
  2063   000696  C001  FFDE         	movff	___simple_search_fl@n,postinc2
  2064   00069A  C002  FFDD         	movff	___simple_search_fl@n+1,postdec2
  2065   00069E  C013  FFD9         	movff	___simple_search_fl@best,fsr2l
  2066   0006A2  C014  FFDA         	movff	___simple_search_fl@best+1,fsr2h
  2067   0006A6  CFDE F003          	movff	postinc2,??___simple_search_fl
  2068   0006AA  CFDD F004          	movff	postdec2,??___simple_search_fl+1
  2069   0006AE  5003               	movf	??___simple_search_fl^0,w,c
  2070   0006B0  2413               	addwf	___simple_search_fl@best^0,w,c
  2071   0006B2  6E05               	movwf	(??___simple_search_fl+2)^0,c
  2072   0006B4  5004               	movf	(??___simple_search_fl+1)^0,w,c
  2073   0006B6  2014               	addwfc	(___simple_search_fl@best+1)^0,w,c
  2074   0006B8  6E06               	movwf	(??___simple_search_fl+3)^0,c
  2075   0006BA  0E02               	movlw	2
  2076   0006BC  2405               	addwf	(??___simple_search_fl+2)^0,w,c
  2077   0006BE  6E0B               	movwf	___simple_search_fl@split^0,c
  2078   0006C0  0E00               	movlw	0
  2079   0006C2  2006               	addwfc	(??___simple_search_fl+3)^0,w,c
  2080   0006C4  6E0C               	movwf	(___simple_search_fl@split+1)^0,c
  2081   0006C6  C00B  FFD9         	movff	___simple_search_fl@split,fsr2l
  2082   0006CA  C00C  FFDA         	movff	___simple_search_fl@split+1,fsr2h
  2083   0006CE  C007  FFDE         	movff	___simple_search_fl@remaining_size,postinc2
  2084   0006D2  C008  FFDD         	movff	___simple_search_fl@remaining_size+1,postdec2
  2085   0006D6  EE20 F002          	lfsr	2,2
  2086   0006DA  500B               	movf	___simple_search_fl@split^0,w,c
  2087   0006DC  26D9               	addwf	fsr2l,f,c
  2088   0006DE  500C               	movf	(___simple_search_fl@split+1)^0,w,c
  2089   0006E0  22DA               	addwfc	fsr2h,f,c
  2090   0006E2  C00F  FFDE         	movff	___simple_search_fl@next,postinc2
  2091   0006E6  C010  FFDD         	movff	___simple_search_fl@next+1,postdec2
  2092   0006EA  C00B  F00F         	movff	___simple_search_fl@split,___simple_search_fl@next
  2093   0006EE  C00C  F010         	movff	___simple_search_fl@split+1,___simple_search_fl@next+1
  2094   0006F2                     i2l916:
  2095   0006F2  5013               	movf	___simple_search_fl@best^0,w,c
  2096   0006F4  1845               	xorwf	___freelist^0,w,c
  2097   0006F6  E107               	bnz	i2u79_41
  2098   0006F8  5014               	movf	(___simple_search_fl@best+1)^0,w,c
  2099   0006FA  1846               	xorwf	(___freelist+1)^0,w,c
  2100   0006FC  A4D8               	btfss	status,2,c
  2101   0006FE  EF83  F003         	goto	i2u79_41
  2102   000702  EF85  F003         	goto	i2u79_40
  2103   000706                     i2u79_41:
  2104   000706  EF8B  F003         	goto	i2l1516
  2105   00070A                     i2u79_40:
  2106   00070A  C00F  F045         	movff	___simple_search_fl@next,___freelist
  2107   00070E  C010  F046         	movff	___simple_search_fl@next+1,___freelist+1
  2108   000712  EF95  F003         	goto	i2l1518
  2109   000716                     i2l1516:
  2110   000716  EE20 F002          	lfsr	2,2
  2111   00071A  5009               	movf	___simple_search_fl@best_last^0,w,c
  2112   00071C  26D9               	addwf	fsr2l,f,c
  2113   00071E  500A               	movf	(___simple_search_fl@best_last+1)^0,w,c
  2114   000720  22DA               	addwfc	fsr2h,f,c
  2115   000722  C00F  FFDE         	movff	___simple_search_fl@next,postinc2
  2116   000726  C010  FFDD         	movff	___simple_search_fl@next+1,postdec2
  2117   00072A                     i2l1518:
  2118   00072A  0E02               	movlw	2
  2119   00072C  2413               	addwf	___simple_search_fl@best^0,w,c
  2120   00072E  6E01               	movwf	?___simple_search_fl^0,c
  2121   000730  0E00               	movlw	0
  2122   000732  2014               	addwfc	(___simple_search_fl@best+1)^0,w,c
  2123   000734  6E02               	movwf	(?___simple_search_fl+1)^0,c
  2124   000736                     i2l905:
  2125   000736  0012               	return		;funcret
  2126   000738                     __end_of___simple_search_fl:
  2127                           	callstack 0
  2128                           
  2129 ;; *************** function ___expand_heap *****************
  2130 ;; Defined at:
  2131 ;;		line 14 in file "C:\Program Files\Microchip\xc8\v2.41\pic\sources\c99\common\expand_heap.c"
  2132 ;; Parameters:    Size  Location     Type
  2133 ;;  pn              2    0[COMRAM] PTR unsigned int 
  2134 ;;		 -> malloc@m(2), 
  2135 ;; Auto vars:     Size  Location     Type
  2136 ;;  new_brkp        2    6[COMRAM] PTR unsigned char 
  2137 ;;		 -> __heap_hi(0), NULL(0), 
  2138 ;;  n               2    4[COMRAM] unsigned int 
  2139 ;; Return value:  Size  Location     Type
  2140 ;;                  2    0[COMRAM] PTR void 
  2141 ;; Registers used:
  2142 ;;		wreg, fsr2l, fsr2h, status,2, status,0
  2143 ;; Tracked objects:
  2144 ;;		On entry : 0/0
  2145 ;;		On exit  : 0/0
  2146 ;;		Unchanged: 0/0
  2147 ;; Data sizes:     COMRAM   BANK0   BANK1   BANK2   BANK3   BANK4   BANK5   BANK6   BANK7   BANK8   BANK9  BANK10  BANK1
      +1  BANK12  BANK14
  2148 ;;      Params:         2       0       0       0       0       0       0       0       0       0       0       0       
      +0       0       0
  2149 ;;      Locals:         4       0       0       0       0       0       0       0       0       0       0       0       
      +0       0       0
  2150 ;;      Temps:          2       0       0       0       0       0       0       0       0       0       0       0       
      +0       0       0
  2151 ;;      Totals:         8       0       0       0       0       0       0       0       0       0       0       0       
      +0       0       0
  2152 ;;Total ram usage:        8 bytes
  2153 ;; Hardware stack levels used: 1
  2154 ;; This function calls:
  2155 ;;		Nothing
  2156 ;; This function is called by:
  2157 ;;		_malloc
  2158 ;; This function uses a non-reentrant model
  2159 ;;
  2160                           
  2161                           	psect	text9
  2162   000BCE                     __ptext9:
  2163                           	callstack 0
  2164   000BCE                     ___expand_heap:
  2165                           	callstack 26
  2166   000BCE  C001  FFD9         	movff	___expand_heap@pn,fsr2l
  2167   000BD2  C002  FFDA         	movff	___expand_heap@pn+1,fsr2h
  2168   000BD6  CFDE F005          	movff	postinc2,___expand_heap@n
  2169   000BDA  CFDD F006          	movff	postdec2,___expand_heap@n+1
  2170   000BDE  503D               	movf	_brkp^0,w,c
  2171   000BE0  103E               	iorwf	(_brkp+1)^0,w,c
  2172   000BE2  A4D8               	btfss	status,2,c
  2173   000BE4  EFF6  F005         	goto	i2u80_41
  2174   000BE8  EFF8  F005         	goto	i2u80_40
  2175   000BEC                     i2u80_41:
  2176   000BEC  EFFC  F005         	goto	i2l967
  2177   000BF0                     i2u80_40:
  2178   000BF0  0E00               	movlw	low ___heap_hi
  2179   000BF2  6E3D               	movwf	_brkp^0,c
  2180   000BF4  0E0D               	movlw	high ___heap_hi
  2181   000BF6  6E3E               	movwf	(_brkp+1)^0,c
  2182   000BF8                     i2l967:
  2183   000BF8  5006               	movf	(___expand_heap@n+1)^0,w,c
  2184   000BFA  E107               	bnz	i2u81_41
  2185   000BFC  0E06               	movlw	6
  2186   000BFE  5C05               	subwf	___expand_heap@n^0,w,c
  2187   000C00  B0D8               	btfsc	status,0,c
  2188   000C02  EF05  F006         	goto	i2u81_41
  2189   000C06  EF07  F006         	goto	i2u81_40
  2190   000C0A                     i2u81_41:
  2191   000C0A  EF0B  F006         	goto	i2l1534
  2192   000C0E                     i2u81_40:
  2193   000C0E  0E00               	movlw	0
  2194   000C10  6E06               	movwf	(___expand_heap@n+1)^0,c
  2195   000C12  0E06               	movlw	6
  2196   000C14  6E05               	movwf	___expand_heap@n^0,c
  2197   000C16                     i2l1534:
  2198   000C16  5005               	movf	___expand_heap@n^0,w,c
  2199   000C18  5C3D               	subwf	_brkp^0,w,c
  2200   000C1A  6E07               	movwf	___expand_heap@new_brkp^0,c
  2201   000C1C  5006               	movf	(___expand_heap@n+1)^0,w,c
  2202   000C1E  583E               	subwfb	(_brkp+1)^0,w,c
  2203   000C20  6E08               	movwf	(___expand_heap@new_brkp+1)^0,c
  2204   000C22  0E68               	movlw	low ___heap_lo
  2205   000C24  6E03               	movwf	??___expand_heap^0,c
  2206   000C26  0E00               	movlw	high ___heap_lo
  2207   000C28  6E04               	movwf	(??___expand_heap+1)^0,c
  2208   000C2A  5003               	movf	??___expand_heap^0,w,c
  2209   000C2C  5C07               	subwf	___expand_heap@new_brkp^0,w,c
  2210   000C2E  5004               	movf	(??___expand_heap+1)^0,w,c
  2211   000C30  5808               	subwfb	(___expand_heap@new_brkp+1)^0,w,c
  2212   000C32  A0D8               	btfss	status,0,c
  2213   000C34  EF1E  F006         	goto	i2u82_41
  2214   000C38  EF20  F006         	goto	i2u82_40
  2215   000C3C                     i2u82_41:
  2216   000C3C  EF2B  F006         	goto	i2l1540
  2217   000C40                     i2u82_40:
  2218   000C40  503D               	movf	_brkp^0,w,c
  2219   000C42  5C07               	subwf	___expand_heap@new_brkp^0,w,c
  2220   000C44  503E               	movf	(_brkp+1)^0,w,c
  2221   000C46  5808               	subwfb	(___expand_heap@new_brkp+1)^0,w,c
  2222   000C48  A0D8               	btfss	status,0,c
  2223   000C4A  EF29  F006         	goto	i2u83_41
  2224   000C4E  EF2B  F006         	goto	i2u83_40
  2225   000C52                     i2u83_41:
  2226   000C52  EF35  F006         	goto	i2l1546
  2227   000C56                     i2u83_40:
  2228   000C56                     i2l1540:
  2229   000C56  0E00               	movlw	0
  2230   000C58  6E44               	movwf	(_errno+1)^0,c
  2231   000C5A  0E0C               	movlw	12
  2232   000C5C  6E43               	movwf	_errno^0,c
  2233   000C5E  0E00               	movlw	0
  2234   000C60  6E01               	movwf	?___expand_heap^0,c
  2235   000C62  0E00               	movlw	0
  2236   000C64  6E02               	movwf	(?___expand_heap+1)^0,c
  2237   000C66  EF3D  F006         	goto	i2l972
  2238   000C6A                     i2l1546:
  2239   000C6A  C007  F03D         	movff	___expand_heap@new_brkp,_brkp
  2240   000C6E  C008  F03E         	movff	___expand_heap@new_brkp+1,_brkp+1
  2241   000C72  C03D  F001         	movff	_brkp,?___expand_heap
  2242   000C76  C03E  F002         	movff	_brkp+1,?___expand_heap+1
  2243   000C7A                     i2l972:
  2244   000C7A  0012               	return		;funcret
  2245   000C7C                     __end_of___expand_heap:
  2246                           	callstack 0
  2247                           
  2248 ;; *************** function _gestion_est_rep *****************
  2249 ;; Defined at:
  2250 ;;		line 127 in file "main.c"
  2251 ;; Parameters:    Size  Location     Type
  2252 ;;		None
  2253 ;; Auto vars:     Size  Location     Type
  2254 ;;		None
  2255 ;; Return value:  Size  Location     Type
  2256 ;;                  1    wreg      void 
  2257 ;; Registers used:
  2258 ;;		wreg, fsr1l, fsr1h, fsr2l, fsr2h, status,2, status,0, cstack
  2259 ;; Tracked objects:
  2260 ;;		On entry : 0/0
  2261 ;;		On exit  : 0/0
  2262 ;;		Unchanged: 0/0
  2263 ;; Data sizes:     COMRAM   BANK0   BANK1   BANK2   BANK3   BANK4   BANK5   BANK6   BANK7   BANK8   BANK9  BANK10  BANK1
      +1  BANK12  BANK14
  2264 ;;      Params:         0       0       0       0       0       0       0       0       0       0       0       0       
      +0       0       0
  2265 ;;      Locals:         0       0       0       0       0       0       0       0       0       0       0       0       
      +0       0       0
  2266 ;;      Temps:          4       0       0       0       0       0       0       0       0       0       0       0       
      +0       0       0
  2267 ;;      Totals:         4       0       0       0       0       0       0       0       0       0       0       0       
      +0       0       0
  2268 ;;Total ram usage:        4 bytes
  2269 ;; Hardware stack levels used: 1
  2270 ;; Hardware stack levels required when called: 1
  2271 ;; This function calls:
  2272 ;;		_free
  2273 ;;		_start_frame
  2274 ;; This function is called by:
  2275 ;;		_interrupciones
  2276 ;; This function uses a non-reentrant model
  2277 ;;
  2278                           
  2279                           	psect	text10
  2280   000B1C                     __ptext10:
  2281                           	callstack 0
  2282   000B1C                     _gestion_est_rep:
  2283                           	callstack 27
  2284   000B1C                     
  2285                           ;main.c: 128:     if(est_sec_r<est_sec){
  2286   000B1C  504D               	movf	_est_sec^0,w,c
  2287   000B1E  5C4B               	subwf	_est_sec_r^0,w,c
  2288   000B20  504E               	movf	(_est_sec+1)^0,w,c
  2289   000B22  584C               	subwfb	(_est_sec_r+1)^0,w,c
  2290   000B24  B0D8               	btfsc	status,0,c
  2291   000B26  EF97  F005         	goto	i2u108_41
  2292   000B2A  EF99  F005         	goto	i2u108_40
  2293   000B2E                     i2u108_41:
  2294   000B2E  EF9D  F005         	goto	i2l1756
  2295   000B32                     i2u108_40:
  2296   000B32                     i2l1754:
  2297                           
  2298                           ;main.c: 129:         start_frame();
  2299   000B32  EC80  F007         	call	_start_frame	;wreg free
  2300                           
  2301                           ;main.c: 130:     }
  2302   000B36  EFE6  F005         	goto	i2l142
  2303   000B3A                     i2l1756:
  2304                           
  2305                           ;main.c: 132:         est_sec_r=0;
  2306   000B3A  0E00               	movlw	0
  2307   000B3C  6E4C               	movwf	(_est_sec_r+1)^0,c
  2308   000B3E  0E00               	movlw	0
  2309   000B40  6E4B               	movwf	_est_sec_r^0,c
  2310   000B42                     
  2311                           ;main.c: 133:         if(rep==0){
  2312   000B42  5035               	movf	_rep^0,w,c
  2313   000B44  1036               	iorwf	(_rep+1)^0,w,c
  2314   000B46  1037               	iorwf	(_rep+2)^0,w,c
  2315   000B48  1038               	iorwf	(_rep+3)^0,w,c
  2316   000B4A  A4D8               	btfss	status,2,c
  2317   000B4C  EFAA  F005         	goto	i2u109_41
  2318   000B50  EFAC  F005         	goto	i2u109_40
  2319   000B54                     i2u109_41:
  2320   000B54  EFAE  F005         	goto	i2l1762
  2321   000B58                     i2u109_40:
  2322   000B58  EF99  F005         	goto	i2l1754
  2323   000B5C                     i2l1762:
  2324   000B5C  0EFF               	movlw	255
  2325   000B5E  2435               	addwf	_rep^0,w,c
  2326   000B60  6E0B               	movwf	??_gestion_est_rep^0,c
  2327   000B62  0EFF               	movlw	255
  2328   000B64  2036               	addwfc	(_rep+1)^0,w,c
  2329   000B66  6E0C               	movwf	(??_gestion_est_rep+1)^0,c
  2330   000B68  0EFF               	movlw	255
  2331   000B6A  2037               	addwfc	(_rep+2)^0,w,c
  2332   000B6C  6E0D               	movwf	(??_gestion_est_rep+2)^0,c
  2333   000B6E  0EFF               	movlw	255
  2334   000B70  2038               	addwfc	(_rep+3)^0,w,c
  2335   000B72  6E0E               	movwf	(??_gestion_est_rep+3)^0,c
  2336   000B74  5031               	movf	_rep_r^0,w,c
  2337   000B76  180B               	xorwf	??_gestion_est_rep^0,w,c
  2338   000B78  E10D               	bnz	i2u110_41
  2339   000B7A  5032               	movf	(_rep_r+1)^0,w,c
  2340   000B7C  180C               	xorwf	(??_gestion_est_rep+1)^0,w,c
  2341   000B7E  E10A               	bnz	i2u110_41
  2342   000B80  5033               	movf	(_rep_r+2)^0,w,c
  2343   000B82  180D               	xorwf	(??_gestion_est_rep+2)^0,w,c
  2344   000B84  E107               	bnz	i2u110_41
  2345   000B86  5034               	movf	(_rep_r+3)^0,w,c
  2346   000B88  180E               	xorwf	(??_gestion_est_rep+3)^0,w,c
  2347   000B8A  A4D8               	btfss	status,2,c
  2348   000B8C  EFCA  F005         	goto	i2u110_41
  2349   000B90  EFCC  F005         	goto	i2u110_40
  2350   000B94                     i2u110_41:
  2351   000B94  EFDE  F005         	goto	i2l1770
  2352   000B98                     i2u110_40:
  2353   000B98                     
  2354                           ;main.c: 137:             free(pixel);
  2355   000B98  C055  F001         	movff	_pixel,free@ptr
  2356   000B9C  C056  F002         	movff	_pixel+1,free@ptr+1
  2357   000BA0  EC55  F004         	call	_free	;wreg free
  2358   000BA4                     
  2359                           ;main.c: 138:             rep_r=0;
  2360   000BA4  0E00               	movlw	0
  2361   000BA6  6E31               	movwf	_rep_r^0,c
  2362   000BA8  0E00               	movlw	0
  2363   000BAA  6E32               	movwf	(_rep_r+1)^0,c
  2364   000BAC  0E00               	movlw	0
  2365   000BAE  6E33               	movwf	(_rep_r+2)^0,c
  2366   000BB0  0E00               	movlw	0
  2367   000BB2  6E34               	movwf	(_rep_r+3)^0,c
  2368   000BB4                     
  2369                           ;main.c: 139:             PIE3bits.SSP1IE=0;
  2370   000BB4  010E               	movlb	14	; () banked
  2371   000BB6  91C0               	bcf	192,0,b	;volatile
  2372                           
  2373                           ;main.c: 140:         }
  2374   000BB8  EFE6  F005         	goto	i2l142
  2375   000BBC                     i2l1770:
  2376                           
  2377                           ;main.c: 142:             rep_r++;
  2378   000BBC  0E01               	movlw	1
  2379   000BBE  2631               	addwf	_rep_r^0,f,c
  2380   000BC0  0E00               	movlw	0
  2381   000BC2  2232               	addwfc	(_rep_r+1)^0,f,c
  2382   000BC4  2233               	addwfc	(_rep_r+2)^0,f,c
  2383   000BC6  2234               	addwfc	(_rep_r+3)^0,f,c
  2384   000BC8  EF99  F005         	goto	i2l1754
  2385   000BCC                     i2l142:
  2386   000BCC  0012               	return		;funcret
  2387   000BCE                     __end_of_gestion_est_rep:
  2388                           	callstack 0
  2389                           
  2390 ;; *************** function _start_frame *****************
  2391 ;; Defined at:
  2392 ;;		line 115 in file "main.c"
  2393 ;; Parameters:    Size  Location     Type
  2394 ;;		None
  2395 ;; Auto vars:     Size  Location     Type
  2396 ;;		None
  2397 ;; Return value:  Size  Location     Type
  2398 ;;                  1    wreg      void 
  2399 ;; Registers used:
  2400 ;;		wreg, status,2, status,0
  2401 ;; Tracked objects:
  2402 ;;		On entry : 0/0
  2403 ;;		On exit  : 0/0
  2404 ;;		Unchanged: 0/0
  2405 ;; Data sizes:     COMRAM   BANK0   BANK1   BANK2   BANK3   BANK4   BANK5   BANK6   BANK7   BANK8   BANK9  BANK10  BANK1
      +1  BANK12  BANK14
  2406 ;;      Params:         0       0       0       0       0       0       0       0       0       0       0       0       
      +0       0       0
  2407 ;;      Locals:         0       0       0       0       0       0       0       0       0       0       0       0       
      +0       0       0
  2408 ;;      Temps:          0       0       0       0       0       0       0       0       0       0       0       0       
      +0       0       0
  2409 ;;      Totals:         0       0       0       0       0       0       0       0       0       0       0       0       
      +0       0       0
  2410 ;;Total ram usage:        0 bytes
  2411 ;; Hardware stack levels used: 1
  2412 ;; This function calls:
  2413 ;;		Nothing
  2414 ;; This function is called by:
  2415 ;;		_gestion_est_rep
  2416 ;;		_interrupciones
  2417 ;; This function uses a non-reentrant model
  2418 ;;
  2419                           
  2420                           	psect	text11
  2421   000F00                     __ptext11:
  2422                           	callstack 0
  2423   000F00                     _start_frame:
  2424                           	callstack 28
  2425   000F00                     
  2426                           ;main.c: 116:     SSP1BUF=0x00;
  2427   000F00  0E00               	movlw	0
  2428   000F02  6E91               	movwf	145,c	;volatile
  2429   000F04                     
  2430                           ;main.c: 117:     s++;
  2431   000F04  2A5A               	incf	_s^0,f,c
  2432   000F06                     
  2433                           ;main.c: 118:     if(s==4){
  2434   000F06  0E04               	movlw	4
  2435   000F08  185A               	xorwf	_s^0,w,c
  2436   000F0A  A4D8               	btfss	status,2,c
  2437   000F0C  EF8A  F007         	goto	i2u91_41
  2438   000F10  EF8C  F007         	goto	i2u91_40
  2439   000F14                     i2u91_41:
  2440   000F14  EF8F  F007         	goto	i2l133
  2441   000F18                     i2u91_40:
  2442   000F18                     
  2443                           ;main.c: 119:         s=0;
  2444   000F18  0E00               	movlw	0
  2445   000F1A  6E5A               	movwf	_s^0,c
  2446   000F1C                     
  2447                           ;main.c: 120:         spi_estado++;
  2448   000F1C  2A5B               	incf	_spi_estado^0,f,c
  2449   000F1E                     i2l133:
  2450   000F1E  0012               	return		;funcret
  2451   000F20                     __end_of_start_frame:
  2452                           	callstack 0
  2453                           
  2454 ;; *************** function _free *****************
  2455 ;; Defined at:
  2456 ;;		line 67 in file "C:\Program Files\Microchip\xc8\v2.41\pic\sources\c99\common\lite_free.c"
  2457 ;; Parameters:    Size  Location     Type
  2458 ;;  ptr             2    0[COMRAM] PTR void 
  2459 ;;		 -> __heap_hi..(3), __heap_hi(0), RAM(3614), NULL(0), 
  2460 ;; Auto vars:     Size  Location     Type
  2461 ;;  c               2    8[COMRAM] PTR struct chunk
  2462 ;;		 -> __heap_hi..(3), __heap_hi(0), RAM(3614), NULL(0), 
  2463 ;;  cptr            2    6[COMRAM] PTR unsigned char 
  2464 ;;		 -> __heap_hi..(3), __heap_hi(0), RAM(3614), NULL(0), 
  2465 ;; Return value:  Size  Location     Type
  2466 ;;                  1    wreg      void 
  2467 ;; Registers used:
  2468 ;;		wreg, fsr1l, fsr1h, fsr2l, fsr2h, status,2, status,0
  2469 ;; Tracked objects:
  2470 ;;		On entry : 0/0
  2471 ;;		On exit  : 0/0
  2472 ;;		Unchanged: 0/0
  2473 ;; Data sizes:     COMRAM   BANK0   BANK1   BANK2   BANK3   BANK4   BANK5   BANK6   BANK7   BANK8   BANK9  BANK10  BANK1
      +1  BANK12  BANK14
  2474 ;;      Params:         2       0       0       0       0       0       0       0       0       0       0       0       
      +0       0       0
  2475 ;;      Locals:         4       0       0       0       0       0       0       0       0       0       0       0       
      +0       0       0
  2476 ;;      Temps:          4       0       0       0       0       0       0       0       0       0       0       0       
      +0       0       0
  2477 ;;      Totals:        10       0       0       0       0       0       0       0       0       0       0       0       
      +0       0       0
  2478 ;;Total ram usage:       10 bytes
  2479 ;; Hardware stack levels used: 1
  2480 ;; This function calls:
  2481 ;;		Nothing
  2482 ;; This function is called by:
  2483 ;;		_gestion_est_rep
  2484 ;; This function uses a non-reentrant model
  2485 ;;
  2486                           
  2487                           	psect	text12
  2488   0008AA                     __ptext12:
  2489                           	callstack 0
  2490   0008AA                     _free:
  2491                           	callstack 27
  2492   0008AA  C001  F007         	movff	free@ptr,free@cptr
  2493   0008AE  C002  F008         	movff	free@ptr+1,free@cptr+1
  2494   0008B2  5001               	movf	free@ptr^0,w,c
  2495   0008B4  1002               	iorwf	(free@ptr+1)^0,w,c
  2496   0008B6  A4D8               	btfss	status,2,c
  2497   0008B8  EF60  F004         	goto	i2u92_41
  2498   0008BC  EF62  F004         	goto	i2u92_40
  2499   0008C0                     i2u92_41:
  2500   0008C0  EF64  F004         	goto	i2l1622
  2501   0008C4                     i2u92_40:
  2502   0008C4  EF01  F005         	goto	i2l922
  2503   0008C8                     i2l1622:
  2504   0008C8  0EFE               	movlw	254
  2505   0008CA  2407               	addwf	free@cptr^0,w,c
  2506   0008CC  6E09               	movwf	free@c^0,c
  2507   0008CE  0EFF               	movlw	255
  2508   0008D0  2008               	addwfc	(free@cptr+1)^0,w,c
  2509   0008D2  6E0A               	movwf	(free@c+1)^0,c
  2510   0008D4  5045               	movf	___freelist^0,w,c
  2511   0008D6  1046               	iorwf	(___freelist+1)^0,w,c
  2512   0008D8  B4D8               	btfsc	status,2,c
  2513   0008DA  EF71  F004         	goto	i2u93_41
  2514   0008DE  EF73  F004         	goto	i2u93_40
  2515   0008E2                     i2u93_41:
  2516   0008E2  EFF7  F004         	goto	i2l1644
  2517   0008E6                     i2u93_40:
  2518   0008E6  C009  FFD9         	movff	free@c,fsr2l
  2519   0008EA  C00A  FFDA         	movff	free@c+1,fsr2h
  2520   0008EE  CFDE F003          	movff	postinc2,??_free
  2521   0008F2  CFDD F004          	movff	postdec2,??_free+1
  2522   0008F6  5003               	movf	??_free^0,w,c
  2523   0008F8  2407               	addwf	free@cptr^0,w,c
  2524   0008FA  6E05               	movwf	(??_free+2)^0,c
  2525   0008FC  5004               	movf	(??_free+1)^0,w,c
  2526   0008FE  2008               	addwfc	(free@cptr+1)^0,w,c
  2527   000900  6E06               	movwf	(??_free+3)^0,c
  2528   000902  5045               	movf	___freelist^0,w,c
  2529   000904  1805               	xorwf	(??_free+2)^0,w,c
  2530   000906  E107               	bnz	i2u94_41
  2531   000908  5046               	movf	(___freelist+1)^0,w,c
  2532   00090A  1806               	xorwf	(??_free+3)^0,w,c
  2533   00090C  A4D8               	btfss	status,2,c
  2534   00090E  EF8B  F004         	goto	i2u94_41
  2535   000912  EF8D  F004         	goto	i2u94_40
  2536   000916                     i2u94_41:
  2537   000916  EFB7  F004         	goto	i2l1636
  2538   00091A                     i2u94_40:
  2539   00091A  EE20 F002          	lfsr	2,2
  2540   00091E  5045               	movf	___freelist^0,w,c
  2541   000920  26D9               	addwf	fsr2l,f,c
  2542   000922  5046               	movf	(___freelist+1)^0,w,c
  2543   000924  22DA               	addwfc	fsr2h,f,c
  2544   000926  EE10 F002          	lfsr	1,2
  2545   00092A  5009               	movf	free@c^0,w,c
  2546   00092C  26E1               	addwf	fsr1l,f,c
  2547   00092E  500A               	movf	(free@c+1)^0,w,c
  2548   000930  22E2               	addwfc	fsr1h,f,c
  2549   000932  CFDE FFE6          	movff	postinc2,postinc1
  2550   000936  CFDD FFE5          	movff	postdec2,postdec1
  2551   00093A  C045  FFD9         	movff	___freelist,fsr2l
  2552   00093E  C046  FFDA         	movff	___freelist+1,fsr2h
  2553   000942  CFDE F003          	movff	postinc2,??_free
  2554   000946  CFDD F004          	movff	postdec2,??_free+1
  2555   00094A  0E02               	movlw	2
  2556   00094C  2603               	addwf	??_free^0,f,c
  2557   00094E  0E00               	movlw	0
  2558   000950  2204               	addwfc	(??_free+1)^0,f,c
  2559   000952  C009  FFD9         	movff	free@c,fsr2l
  2560   000956  C00A  FFDA         	movff	free@c+1,fsr2h
  2561   00095A  5003               	movf	??_free^0,w,c
  2562   00095C  26DE               	addwf	postinc2,f,c
  2563   00095E  5004               	movf	(??_free+1)^0,w,c
  2564   000960  22DD               	addwfc	postdec2,f,c
  2565   000962                     i2l1630:
  2566   000962  C009  F045         	movff	free@c,___freelist
  2567   000966  C00A  F046         	movff	free@c+1,___freelist+1
  2568   00096A  EF01  F005         	goto	i2l922
  2569   00096E                     i2l1636:
  2570   00096E  C045  FFD9         	movff	___freelist,fsr2l
  2571   000972  C046  FFDA         	movff	___freelist+1,fsr2h
  2572   000976  CFDE F003          	movff	postinc2,??_free
  2573   00097A  CFDD F004          	movff	postdec2,??_free+1
  2574   00097E  5003               	movf	??_free^0,w,c
  2575   000980  2445               	addwf	___freelist^0,w,c
  2576   000982  6E05               	movwf	(??_free+2)^0,c
  2577   000984  5004               	movf	(??_free+1)^0,w,c
  2578   000986  2046               	addwfc	(___freelist+1)^0,w,c
  2579   000988  6E06               	movwf	(??_free+3)^0,c
  2580   00098A  0E02               	movlw	2
  2581   00098C  2605               	addwf	(??_free+2)^0,f,c
  2582   00098E  0E00               	movlw	0
  2583   000990  2206               	addwfc	(??_free+3)^0,f,c
  2584   000992  5009               	movf	free@c^0,w,c
  2585   000994  1805               	xorwf	(??_free+2)^0,w,c
  2586   000996  E107               	bnz	i2u95_41
  2587   000998  500A               	movf	(free@c+1)^0,w,c
  2588   00099A  1806               	xorwf	(??_free+3)^0,w,c
  2589   00099C  A4D8               	btfss	status,2,c
  2590   00099E  EFD3  F004         	goto	i2u95_41
  2591   0009A2  EFD5  F004         	goto	i2u95_40
  2592   0009A6                     i2u95_41:
  2593   0009A6  EFEB  F004         	goto	i2l1642
  2594   0009AA                     i2u95_40:
  2595   0009AA  C009  FFD9         	movff	free@c,fsr2l
  2596   0009AE  C00A  FFDA         	movff	free@c+1,fsr2h
  2597   0009B2  CFDE F003          	movff	postinc2,??_free
  2598   0009B6  CFDD F004          	movff	postdec2,??_free+1
  2599   0009BA  0E02               	movlw	2
  2600   0009BC  2603               	addwf	??_free^0,f,c
  2601   0009BE  0E00               	movlw	0
  2602   0009C0  2204               	addwfc	(??_free+1)^0,f,c
  2603   0009C2  C045  FFD9         	movff	___freelist,fsr2l
  2604   0009C6  C046  FFDA         	movff	___freelist+1,fsr2h
  2605   0009CA  5003               	movf	??_free^0,w,c
  2606   0009CC  26DE               	addwf	postinc2,f,c
  2607   0009CE  5004               	movf	(??_free+1)^0,w,c
  2608   0009D0  22DD               	addwfc	postdec2,f,c
  2609   0009D2  EF01  F005         	goto	i2l922
  2610   0009D6                     i2l1642:
  2611   0009D6  EE20 F002          	lfsr	2,2
  2612   0009DA  5009               	movf	free@c^0,w,c
  2613   0009DC  26D9               	addwf	fsr2l,f,c
  2614   0009DE  500A               	movf	(free@c+1)^0,w,c
  2615   0009E0  22DA               	addwfc	fsr2h,f,c
  2616   0009E2  C045  FFDE         	movff	___freelist,postinc2
  2617   0009E6  C046  FFDD         	movff	___freelist+1,postdec2
  2618   0009EA  EFB1  F004         	goto	i2l1630
  2619   0009EE                     i2l1644:
  2620   0009EE  EE20 F002          	lfsr	2,2
  2621   0009F2  5009               	movf	free@c^0,w,c
  2622   0009F4  26D9               	addwf	fsr2l,f,c
  2623   0009F6  500A               	movf	(free@c+1)^0,w,c
  2624   0009F8  22DA               	addwfc	fsr2h,f,c
  2625   0009FA  6ADE               	clrf	postinc2,c
  2626   0009FC  6ADD               	clrf	postdec2,c
  2627   0009FE  EFB1  F004         	goto	i2l1630
  2628   000A02                     i2l922:
  2629   000A02  0012               	return		;funcret
  2630   000A04                     __end_of_free:
  2631                           	callstack 0
  2632                           
  2633 ;; *************** function _envio_pixel *****************
  2634 ;; Defined at:
  2635 ;;		line 87 in file "main.c"
  2636 ;; Parameters:    Size  Location     Type
  2637 ;;		None
  2638 ;; Auto vars:     Size  Location     Type
  2639 ;;		None
  2640 ;; Return value:  Size  Location     Type
  2641 ;;                  1    wreg      void 
  2642 ;; Registers used:
  2643 ;;		wreg, fsr2l, fsr2h, status,2, status,0, prodl, prodh, cstack
  2644 ;; Tracked objects:
  2645 ;;		On entry : 0/0
  2646 ;;		On exit  : 0/0
  2647 ;;		Unchanged: 0/0
  2648 ;; Data sizes:     COMRAM   BANK0   BANK1   BANK2   BANK3   BANK4   BANK5   BANK6   BANK7   BANK8   BANK9  BANK10  BANK1
      +1  BANK12  BANK14
  2649 ;;      Params:         0       0       0       0       0       0       0       0       0       0       0       0       
      +0       0       0
  2650 ;;      Locals:         0       0       0       0       0       0       0       0       0       0       0       0       
      +0       0       0
  2651 ;;      Temps:          2       0       0       0       0       0       0       0       0       0       0       0       
      +0       0       0
  2652 ;;      Totals:         2       0       0       0       0       0       0       0       0       0       0       0       
      +0       0       0
  2653 ;;Total ram usage:        2 bytes
  2654 ;; Hardware stack levels used: 1
  2655 ;; Hardware stack levels required when called: 1
  2656 ;; This function calls:
  2657 ;;		___lwdiv
  2658 ;;		___wmul
  2659 ;; This function is called by:
  2660 ;;		_interrupciones
  2661 ;; This function uses a non-reentrant model
  2662 ;;
  2663                           
  2664                           	psect	text13
  2665   000A04                     __ptext13:
  2666                           	callstack 0
  2667   000A04                     _envio_pixel:
  2668                           	callstack 27
  2669   000A04                     
  2670                           ;main.c: 88:     if(s==0){
  2671   000A04  505A               	movf	_s^0,w,c
  2672   000A06  A4D8               	btfss	status,2,c
  2673   000A08  EF08  F005         	goto	i2u102_41
  2674   000A0C  EF0A  F005         	goto	i2u102_40
  2675   000A10                     i2u102_41:
  2676   000A10  EF0E  F005         	goto	i2l1724
  2677   000A14                     i2u102_40:
  2678   000A14                     
  2679                           ;main.c: 89:         SSP1BUF=0xFF;
  2680   000A14  6891               	setf	145,c	;volatile
  2681   000A16                     i2l1722:
  2682                           
  2683                           ;main.c: 90:         s++;
  2684   000A16  2A5A               	incf	_s^0,f,c
  2685                           
  2686                           ;main.c: 91:     }
  2687   000A18  EF8D  F005         	goto	i2l129
  2688   000A1C                     i2l1724:
  2689   000A1C  045A               	decf	_s^0,w,c
  2690   000A1E  B4D8               	btfsc	status,2,c
  2691   000A20  EF14  F005         	goto	i2u103_41
  2692   000A24  EF16  F005         	goto	i2u103_40
  2693   000A28                     i2u103_41:
  2694   000A28  EF1F  F005         	goto	i2l1728
  2695   000A2C                     i2u103_40:
  2696   000A2C  0E02               	movlw	2
  2697   000A2E  185A               	xorwf	_s^0,w,c
  2698   000A30  A4D8               	btfss	status,2,c
  2699   000A32  EF1D  F005         	goto	i2u104_41
  2700   000A36  EF1F  F005         	goto	i2u104_40
  2701   000A3A                     i2u104_41:
  2702   000A3A  EF39  F005         	goto	i2l1732
  2703   000A3E                     i2u104_40:
  2704   000A3E                     i2l1728:
  2705                           
  2706                           ;main.c: 93:         SSP1BUF=pixel[n+est_sec_r*led_group];
  2707   000A3E  C04B  F001         	movff	_est_sec_r,___wmul@multiplier
  2708   000A42  C04C  F002         	movff	_est_sec_r+1,___wmul@multiplier+1
  2709   000A46  C051  F003         	movff	_led_group,___wmul@multiplicand
  2710   000A4A  C052  F004         	movff	_led_group+1,___wmul@multiplicand+1
  2711   000A4E  EC5C  F007         	call	___wmul	;wreg free
  2712   000A52  5059               	movf	_n^0,w,c
  2713   000A54  2455               	addwf	_pixel^0,w,c
  2714   000A56  6E08               	movwf	??_envio_pixel^0,c
  2715   000A58  0E00               	movlw	0
  2716   000A5A  2056               	addwfc	(_pixel+1)^0,w,c
  2717   000A5C  6E09               	movwf	(??_envio_pixel+1)^0,c
  2718   000A5E  5001               	movf	?___wmul^0,w,c
  2719   000A60  2408               	addwf	??_envio_pixel^0,w,c
  2720   000A62  6ED9               	movwf	fsr2l,c
  2721   000A64  5002               	movf	(?___wmul+1)^0,w,c
  2722   000A66  2009               	addwfc	(??_envio_pixel+1)^0,w,c
  2723   000A68  6EDA               	movwf	fsr2h,c
  2724   000A6A  50DF               	movf	indf2,w,c
  2725   000A6C  6E91               	movwf	145,c	;volatile
  2726   000A6E  EF0B  F005         	goto	i2l1722
  2727   000A72                     i2l1732:
  2728   000A72  0E03               	movlw	3
  2729   000A74  185A               	xorwf	_s^0,w,c
  2730   000A76  A4D8               	btfss	status,2,c
  2731   000A78  EF40  F005         	goto	i2u105_41
  2732   000A7C  EF42  F005         	goto	i2u105_40
  2733   000A80                     i2u105_41:
  2734   000A80  EF8D  F005         	goto	i2l129
  2735   000A84                     i2u105_40:
  2736   000A84                     
  2737                           ;main.c: 97:         SSP1BUF=pixel[n+est_sec_r*led_group];
  2738   000A84  C04B  F001         	movff	_est_sec_r,___wmul@multiplier
  2739   000A88  C04C  F002         	movff	_est_sec_r+1,___wmul@multiplier+1
  2740   000A8C  C051  F003         	movff	_led_group,___wmul@multiplicand
  2741   000A90  C052  F004         	movff	_led_group+1,___wmul@multiplicand+1
  2742   000A94  EC5C  F007         	call	___wmul	;wreg free
  2743   000A98  5059               	movf	_n^0,w,c
  2744   000A9A  2455               	addwf	_pixel^0,w,c
  2745   000A9C  6E08               	movwf	??_envio_pixel^0,c
  2746   000A9E  0E00               	movlw	0
  2747   000AA0  2056               	addwfc	(_pixel+1)^0,w,c
  2748   000AA2  6E09               	movwf	(??_envio_pixel+1)^0,c
  2749   000AA4  5001               	movf	?___wmul^0,w,c
  2750   000AA6  2408               	addwf	??_envio_pixel^0,w,c
  2751   000AA8  6ED9               	movwf	fsr2l,c
  2752   000AAA  5002               	movf	(?___wmul+1)^0,w,c
  2753   000AAC  2009               	addwfc	(??_envio_pixel+1)^0,w,c
  2754   000AAE  6EDA               	movwf	fsr2h,c
  2755   000AB0  50DF               	movf	indf2,w,c
  2756   000AB2  6E91               	movwf	145,c	;volatile
  2757   000AB4                     
  2758                           ;main.c: 98:         s=0;
  2759   000AB4  0E00               	movlw	0
  2760   000AB6  6E5A               	movwf	_s^0,c
  2761   000AB8                     
  2762                           ;main.c: 99:         led_env++;
  2763   000AB8  4A4F               	infsnz	_led_env^0,f,c
  2764   000ABA  2A50               	incf	(_led_env+1)^0,f,c
  2765   000ABC                     
  2766                           ;main.c: 101:         if(led_env==(n_led/led_group)){
  2767   000ABC  C053  F001         	movff	_n_led,___lwdiv@dividend
  2768   000AC0  C054  F002         	movff	_n_led+1,___lwdiv@dividend+1
  2769   000AC4  C051  F003         	movff	_led_group,___lwdiv@divisor
  2770   000AC8  C052  F004         	movff	_led_group+1,___lwdiv@divisor+1
  2771   000ACC  EC90  F006         	call	___lwdiv	;wreg free
  2772   000AD0  504F               	movf	_led_env^0,w,c
  2773   000AD2  1801               	xorwf	?___lwdiv^0,w,c
  2774   000AD4  E107               	bnz	i2u106_41
  2775   000AD6  5050               	movf	(_led_env+1)^0,w,c
  2776   000AD8  1802               	xorwf	(?___lwdiv+1)^0,w,c
  2777   000ADA  A4D8               	btfss	status,2,c
  2778   000ADC  EF72  F005         	goto	i2u106_41
  2779   000AE0  EF74  F005         	goto	i2u106_40
  2780   000AE4                     i2u106_41:
  2781   000AE4  EF8D  F005         	goto	i2l129
  2782   000AE8                     i2u106_40:
  2783   000AE8                     
  2784                           ;main.c: 102:             led_env=0;
  2785   000AE8  0E00               	movlw	0
  2786   000AEA  6E50               	movwf	(_led_env+1)^0,c
  2787   000AEC  0E00               	movlw	0
  2788   000AEE  6E4F               	movwf	_led_env^0,c
  2789   000AF0                     
  2790                           ;main.c: 103:             n++;
  2791   000AF0  2A59               	incf	_n^0,f,c
  2792   000AF2                     
  2793                           ;main.c: 104:             if(n==led_group){
  2794   000AF2  5059               	movf	_n^0,w,c
  2795   000AF4  6E08               	movwf	??_envio_pixel^0,c
  2796   000AF6  6A09               	clrf	(??_envio_pixel+1)^0,c
  2797   000AF8  5051               	movf	_led_group^0,w,c
  2798   000AFA  1808               	xorwf	??_envio_pixel^0,w,c
  2799   000AFC  E107               	bnz	i2u107_41
  2800   000AFE  5052               	movf	(_led_group+1)^0,w,c
  2801   000B00  1809               	xorwf	(??_envio_pixel+1)^0,w,c
  2802   000B02  A4D8               	btfss	status,2,c
  2803   000B04  EF86  F005         	goto	i2u107_41
  2804   000B08  EF88  F005         	goto	i2u107_40
  2805   000B0C                     i2u107_41:
  2806   000B0C  EF8D  F005         	goto	i2l125
  2807   000B10                     i2u107_40:
  2808   000B10                     
  2809                           ;main.c: 105:                 n=0;
  2810   000B10  0E00               	movlw	0
  2811   000B12  6E59               	movwf	_n^0,c
  2812   000B14                     
  2813                           ;main.c: 106:                 spi_estado++;
  2814   000B14  2A5B               	incf	_spi_estado^0,f,c
  2815   000B16  EF8D  F005         	goto	i2l129
  2816   000B1A                     i2l125:
  2817   000B1A                     i2l129:
  2818   000B1A  0012               	return		;funcret
  2819   000B1C                     __end_of_envio_pixel:
  2820                           	callstack 0
  2821                           
  2822 ;; *************** function ___wmul *****************
  2823 ;; Defined at:
  2824 ;;		line 15 in file "C:\Program Files\Microchip\xc8\v2.41\pic\sources\c99\common\Umul16.c"
  2825 ;; Parameters:    Size  Location     Type
  2826 ;;  multiplier      2    0[COMRAM] unsigned int 
  2827 ;;  multiplicand    2    2[COMRAM] unsigned int 
  2828 ;; Auto vars:     Size  Location     Type
  2829 ;;  product         2    4[COMRAM] unsigned int 
  2830 ;; Return value:  Size  Location     Type
  2831 ;;                  2    0[COMRAM] unsigned int 
  2832 ;; Registers used:
  2833 ;;		wreg, status,2, status,0, prodl, prodh
  2834 ;; Tracked objects:
  2835 ;;		On entry : 0/0
  2836 ;;		On exit  : 0/0
  2837 ;;		Unchanged: 0/0
  2838 ;; Data sizes:     COMRAM   BANK0   BANK1   BANK2   BANK3   BANK4   BANK5   BANK6   BANK7   BANK8   BANK9  BANK10  BANK1
      +1  BANK12  BANK14
  2839 ;;      Params:         4       0       0       0       0       0       0       0       0       0       0       0       
      +0       0       0
  2840 ;;      Locals:         2       0       0       0       0       0       0       0       0       0       0       0       
      +0       0       0
  2841 ;;      Temps:          0       0       0       0       0       0       0       0       0       0       0       0       
      +0       0       0
  2842 ;;      Totals:         6       0       0       0       0       0       0       0       0       0       0       0       
      +0       0       0
  2843 ;;Total ram usage:        6 bytes
  2844 ;; Hardware stack levels used: 1
  2845 ;; This function calls:
  2846 ;;		Nothing
  2847 ;; This function is called by:
  2848 ;;		_ini_array
  2849 ;;		_set_pixel_color
  2850 ;;		_envio_pixel
  2851 ;; This function uses a non-reentrant model
  2852 ;;
  2853                           
  2854                           	psect	text14
  2855   000EB8                     __ptext14:
  2856                           	callstack 0
  2857   000EB8                     ___wmul:
  2858                           	callstack 27
  2859   000EB8  5001               	movf	___wmul@multiplier^0,w,c
  2860   000EBA  0203               	mulwf	___wmul@multiplicand^0,c
  2861   000EBC  CFF3 F005          	movff	prodl,___wmul@product
  2862   000EC0  CFF4 F006          	movff	prodh,___wmul@product+1
  2863   000EC4  5001               	movf	___wmul@multiplier^0,w,c
  2864   000EC6  0204               	mulwf	(___wmul@multiplicand+1)^0,c
  2865   000EC8  50F3               	movf	243,w,c
  2866   000ECA  2606               	addwf	(___wmul@product+1)^0,f,c
  2867   000ECC  5002               	movf	(___wmul@multiplier+1)^0,w,c
  2868   000ECE  0203               	mulwf	___wmul@multiplicand^0,c
  2869   000ED0  50F3               	movf	243,w,c
  2870   000ED2  2606               	addwf	(___wmul@product+1)^0,f,c
  2871   000ED4  C005  F001         	movff	___wmul@product,?___wmul
  2872   000ED8  C006  F002         	movff	___wmul@product+1,?___wmul+1
  2873   000EDC  0012               	return		;funcret
  2874   000EDE                     __end_of___wmul:
  2875                           	callstack 0
  2876                           
  2877 ;; *************** function ___lwdiv *****************
  2878 ;; Defined at:
  2879 ;;		line 7 in file "C:\Program Files\Microchip\xc8\v2.41\pic\sources\c99\common\lwdiv.c"
  2880 ;; Parameters:    Size  Location     Type
  2881 ;;  dividend        2    0[COMRAM] unsigned int 
  2882 ;;  divisor         2    2[COMRAM] unsigned int 
  2883 ;; Auto vars:     Size  Location     Type
  2884 ;;  quotient        2    4[COMRAM] unsigned int 
  2885 ;;  counter         1    6[COMRAM] unsigned char 
  2886 ;; Return value:  Size  Location     Type
  2887 ;;                  2    0[COMRAM] unsigned int 
  2888 ;; Registers used:
  2889 ;;		wreg, status,2, status,0
  2890 ;; Tracked objects:
  2891 ;;		On entry : 0/0
  2892 ;;		On exit  : 0/0
  2893 ;;		Unchanged: 0/0
  2894 ;; Data sizes:     COMRAM   BANK0   BANK1   BANK2   BANK3   BANK4   BANK5   BANK6   BANK7   BANK8   BANK9  BANK10  BANK1
      +1  BANK12  BANK14
  2895 ;;      Params:         4       0       0       0       0       0       0       0       0       0       0       0       
      +0       0       0
  2896 ;;      Locals:         3       0       0       0       0       0       0       0       0       0       0       0       
      +0       0       0
  2897 ;;      Temps:          0       0       0       0       0       0       0       0       0       0       0       0       
      +0       0       0
  2898 ;;      Totals:         7       0       0       0       0       0       0       0       0       0       0       0       
      +0       0       0
  2899 ;;Total ram usage:        7 bytes
  2900 ;; Hardware stack levels used: 1
  2901 ;; This function calls:
  2902 ;;		Nothing
  2903 ;; This function is called by:
  2904 ;;		_envio_pixel
  2905 ;; This function uses a non-reentrant model
  2906 ;;
  2907                           
  2908                           	psect	text15
  2909   000D20                     __ptext15:
  2910                           	callstack 0
  2911   000D20                     ___lwdiv:
  2912                           	callstack 27
  2913   000D20  0E00               	movlw	0
  2914   000D22  6E06               	movwf	(___lwdiv@quotient+1)^0,c
  2915   000D24  0E00               	movlw	0
  2916   000D26  6E05               	movwf	___lwdiv@quotient^0,c
  2917   000D28  5003               	movf	___lwdiv@divisor^0,w,c
  2918   000D2A  1004               	iorwf	(___lwdiv@divisor+1)^0,w,c
  2919   000D2C  B4D8               	btfsc	status,2,c
  2920   000D2E  EF9B  F006         	goto	i2u96_41
  2921   000D32  EF9D  F006         	goto	i2u96_40
  2922   000D36                     i2u96_41:
  2923   000D36  EFC5  F006         	goto	i2l719
  2924   000D3A                     i2u96_40:
  2925   000D3A  0E01               	movlw	1
  2926   000D3C  6E07               	movwf	___lwdiv@counter^0,c
  2927   000D3E  EFA5  F006         	goto	i2l1662
  2928   000D42                     i2l1660:
  2929   000D42  90D8               	bcf	status,0,c
  2930   000D44  3603               	rlcf	___lwdiv@divisor^0,f,c
  2931   000D46  3604               	rlcf	(___lwdiv@divisor+1)^0,f,c
  2932   000D48  2A07               	incf	___lwdiv@counter^0,f,c
  2933   000D4A                     i2l1662:
  2934   000D4A  AE04               	btfss	(___lwdiv@divisor+1)^0,7,c
  2935   000D4C  EFAA  F006         	goto	i2u97_41
  2936   000D50  EFAC  F006         	goto	i2u97_40
  2937   000D54                     i2u97_41:
  2938   000D54  EFA1  F006         	goto	i2l1660
  2939   000D58                     i2u97_40:
  2940   000D58                     i2l1664:
  2941   000D58  90D8               	bcf	status,0,c
  2942   000D5A  3605               	rlcf	___lwdiv@quotient^0,f,c
  2943   000D5C  3606               	rlcf	(___lwdiv@quotient+1)^0,f,c
  2944   000D5E  5003               	movf	___lwdiv@divisor^0,w,c
  2945   000D60  5C01               	subwf	___lwdiv@dividend^0,w,c
  2946   000D62  5004               	movf	(___lwdiv@divisor+1)^0,w,c
  2947   000D64  5802               	subwfb	(___lwdiv@dividend+1)^0,w,c
  2948   000D66  A0D8               	btfss	status,0,c
  2949   000D68  EFB8  F006         	goto	i2u98_41
  2950   000D6C  EFBA  F006         	goto	i2u98_40
  2951   000D70                     i2u98_41:
  2952   000D70  EFBF  F006         	goto	i2l1672
  2953   000D74                     i2u98_40:
  2954   000D74  5003               	movf	___lwdiv@divisor^0,w,c
  2955   000D76  5E01               	subwf	___lwdiv@dividend^0,f,c
  2956   000D78  5004               	movf	(___lwdiv@divisor+1)^0,w,c
  2957   000D7A  5A02               	subwfb	(___lwdiv@dividend+1)^0,f,c
  2958   000D7C  8005               	bsf	___lwdiv@quotient^0,0,c
  2959   000D7E                     i2l1672:
  2960   000D7E  90D8               	bcf	status,0,c
  2961   000D80  3204               	rrcf	(___lwdiv@divisor+1)^0,f,c
  2962   000D82  3203               	rrcf	___lwdiv@divisor^0,f,c
  2963   000D84  2E07               	decfsz	___lwdiv@counter^0,f,c
  2964   000D86  EFAC  F006         	goto	i2l1664
  2965   000D8A                     i2l719:
  2966   000D8A  C005  F001         	movff	___lwdiv@quotient,?___lwdiv
  2967   000D8E  C006  F002         	movff	___lwdiv@quotient+1,?___lwdiv+1
  2968   000D92  0012               	return		;funcret
  2969   000D94                     __end_of___lwdiv:
  2970                           	callstack 0
  2971                           
  2972 ;; *************** function _end_frame *****************
  2973 ;; Defined at:
  2974 ;;		line 73 in file "main.c"
  2975 ;; Parameters:    Size  Location     Type
  2976 ;;		None
  2977 ;; Auto vars:     Size  Location     Type
  2978 ;;		None
  2979 ;; Return value:  Size  Location     Type
  2980 ;;                  1    wreg      void 
  2981 ;; Registers used:
  2982 ;;		wreg, status,2, status,0
  2983 ;; Tracked objects:
  2984 ;;		On entry : 0/0
  2985 ;;		On exit  : 0/0
  2986 ;;		Unchanged: 0/0
  2987 ;; Data sizes:     COMRAM   BANK0   BANK1   BANK2   BANK3   BANK4   BANK5   BANK6   BANK7   BANK8   BANK9  BANK10  BANK1
      +1  BANK12  BANK14
  2988 ;;      Params:         0       0       0       0       0       0       0       0       0       0       0       0       
      +0       0       0
  2989 ;;      Locals:         0       0       0       0       0       0       0       0       0       0       0       0       
      +0       0       0
  2990 ;;      Temps:          5       0       0       0       0       0       0       0       0       0       0       0       
      +0       0       0
  2991 ;;      Totals:         5       0       0       0       0       0       0       0       0       0       0       0       
      +0       0       0
  2992 ;;Total ram usage:        5 bytes
  2993 ;; Hardware stack levels used: 1
  2994 ;; This function calls:
  2995 ;;		Nothing
  2996 ;; This function is called by:
  2997 ;;		_interrupciones
  2998 ;; This function uses a non-reentrant model
  2999 ;;
  3000                           
  3001                           	psect	text16
  3002   000D94                     __ptext16:
  3003                           	callstack 0
  3004   000D94                     _end_frame:
  3005                           	callstack 28
  3006   000D94                     
  3007                           ;main.c: 74:         SSP1BUF=0xFF;
  3008   000D94  6891               	setf	145,c	;volatile
  3009   000D96                     
  3010                           ;main.c: 75:         s++;
  3011   000D96  2A5A               	incf	_s^0,f,c
  3012   000D98                     
  3013                           ;main.c: 76:         if(s==((n_led+15)/16)){
  3014   000D98  0E0F               	movlw	15
  3015   000D9A  2453               	addwf	_n_led^0,w,c
  3016   000D9C  6E01               	movwf	??_end_frame^0,c
  3017   000D9E  0E00               	movlw	0
  3018   000DA0  2054               	addwfc	(_n_led+1)^0,w,c
  3019   000DA2  6E02               	movwf	(??_end_frame+1)^0,c
  3020   000DA4  0E04               	movlw	4
  3021   000DA6  6E03               	movwf	(??_end_frame+2)^0,c
  3022   000DA8                     i2u100_45:
  3023   000DA8  90D8               	bcf	status,0,c
  3024   000DAA  3202               	rrcf	(??_end_frame+1)^0,f,c
  3025   000DAC  3201               	rrcf	??_end_frame^0,f,c
  3026   000DAE  2E03               	decfsz	(??_end_frame+2)^0,f,c
  3027   000DB0  EFD4  F006         	goto	i2u100_45
  3028   000DB4  505A               	movf	_s^0,w,c
  3029   000DB6  6E04               	movwf	(??_end_frame+3)^0,c
  3030   000DB8  6A05               	clrf	(??_end_frame+4)^0,c
  3031   000DBA  5001               	movf	??_end_frame^0,w,c
  3032   000DBC  1804               	xorwf	(??_end_frame+3)^0,w,c
  3033   000DBE  E107               	bnz	i2u101_41
  3034   000DC0  5002               	movf	(??_end_frame+1)^0,w,c
  3035   000DC2  1805               	xorwf	(??_end_frame+4)^0,w,c
  3036   000DC4  A4D8               	btfss	status,2,c
  3037   000DC6  EFE7  F006         	goto	i2u101_41
  3038   000DCA  EFE9  F006         	goto	i2u101_40
  3039   000DCE                     i2u101_41:
  3040   000DCE  EFEC  F006         	goto	i2l117
  3041   000DD2                     i2u101_40:
  3042   000DD2                     
  3043                           ;main.c: 77:             s=0;
  3044   000DD2  0E00               	movlw	0
  3045   000DD4  6E5A               	movwf	_s^0,c
  3046   000DD6                     
  3047                           ;main.c: 78:             spi_estado++;
  3048   000DD6  2A5B               	incf	_spi_estado^0,f,c
  3049   000DD8                     i2l117:
  3050   000DD8  0012               	return		;funcret
  3051   000DDA                     __end_of_end_frame:
  3052                           	callstack 0
  3053                           
  3054 ;; *************** function ___lldiv *****************
  3055 ;; Defined at:
  3056 ;;		line 7 in file "C:\Program Files\Microchip\xc8\v2.41\pic\sources\c99\common\__lldiv.c"
  3057 ;; Parameters:    Size  Location     Type
  3058 ;;  dividend        4    0[COMRAM] unsigned long 
  3059 ;;  divisor         4    4[COMRAM] unsigned long 
  3060 ;; Auto vars:     Size  Location     Type
  3061 ;;  quotient        4    8[COMRAM] unsigned long 
  3062 ;;  counter         1   12[COMRAM] unsigned char 
  3063 ;; Return value:  Size  Location     Type
  3064 ;;                  4    0[COMRAM] unsigned long 
  3065 ;; Registers used:
  3066 ;;		wreg, status,2, status,0
  3067 ;; Tracked objects:
  3068 ;;		On entry : 0/0
  3069 ;;		On exit  : 0/0
  3070 ;;		Unchanged: 0/0
  3071 ;; Data sizes:     COMRAM   BANK0   BANK1   BANK2   BANK3   BANK4   BANK5   BANK6   BANK7   BANK8   BANK9  BANK10  BANK1
      +1  BANK12  BANK14
  3072 ;;      Params:         8       0       0       0       0       0       0       0       0       0       0       0       
      +0       0       0
  3073 ;;      Locals:         5       0       0       0       0       0       0       0       0       0       0       0       
      +0       0       0
  3074 ;;      Temps:          0       0       0       0       0       0       0       0       0       0       0       0       
      +0       0       0
  3075 ;;      Totals:        13       0       0       0       0       0       0       0       0       0       0       0       
      +0       0       0
  3076 ;;Total ram usage:       13 bytes
  3077 ;; Hardware stack levels used: 1
  3078 ;; This function calls:
  3079 ;;		Nothing
  3080 ;; This function is called by:
  3081 ;;		_interrupciones
  3082 ;; This function uses a non-reentrant model
  3083 ;;
  3084                           
  3085                           	psect	text17
  3086   000C7C                     __ptext17:
  3087                           	callstack 0
  3088   000C7C                     ___lldiv:
  3089                           	callstack 28
  3090   000C7C  0E00               	movlw	0
  3091   000C7E  6E09               	movwf	___lldiv@quotient^0,c
  3092   000C80  0E00               	movlw	0
  3093   000C82  6E0A               	movwf	(___lldiv@quotient+1)^0,c
  3094   000C84  0E00               	movlw	0
  3095   000C86  6E0B               	movwf	(___lldiv@quotient+2)^0,c
  3096   000C88  0E00               	movlw	0
  3097   000C8A  6E0C               	movwf	(___lldiv@quotient+3)^0,c
  3098   000C8C  5005               	movf	___lldiv@divisor^0,w,c
  3099   000C8E  1006               	iorwf	(___lldiv@divisor+1)^0,w,c
  3100   000C90  1007               	iorwf	(___lldiv@divisor+2)^0,w,c
  3101   000C92  1008               	iorwf	(___lldiv@divisor+3)^0,w,c
  3102   000C94  B4D8               	btfsc	status,2,c
  3103   000C96  EF4F  F006         	goto	i2u111_41
  3104   000C9A  EF51  F006         	goto	i2u111_40
  3105   000C9E                     i2u111_41:
  3106   000C9E  EF87  F006         	goto	i2l255
  3107   000CA2                     i2u111_40:
  3108   000CA2  0E01               	movlw	1
  3109   000CA4  6E0D               	movwf	___lldiv@counter^0,c
  3110   000CA6  EF5B  F006         	goto	i2l1788
  3111   000CAA                     i2l1786:
  3112   000CAA  90D8               	bcf	status,0,c
  3113   000CAC  3605               	rlcf	___lldiv@divisor^0,f,c
  3114   000CAE  3606               	rlcf	(___lldiv@divisor+1)^0,f,c
  3115   000CB0  3607               	rlcf	(___lldiv@divisor+2)^0,f,c
  3116   000CB2  3608               	rlcf	(___lldiv@divisor+3)^0,f,c
  3117   000CB4  2A0D               	incf	___lldiv@counter^0,f,c
  3118   000CB6                     i2l1788:
  3119   000CB6  AE08               	btfss	(___lldiv@divisor+3)^0,7,c
  3120   000CB8  EF60  F006         	goto	i2u112_41
  3121   000CBC  EF62  F006         	goto	i2u112_40
  3122   000CC0                     i2u112_41:
  3123   000CC0  EF55  F006         	goto	i2l1786
  3124   000CC4                     i2u112_40:
  3125   000CC4                     i2l1790:
  3126   000CC4  90D8               	bcf	status,0,c
  3127   000CC6  3609               	rlcf	___lldiv@quotient^0,f,c
  3128   000CC8  360A               	rlcf	(___lldiv@quotient+1)^0,f,c
  3129   000CCA  360B               	rlcf	(___lldiv@quotient+2)^0,f,c
  3130   000CCC  360C               	rlcf	(___lldiv@quotient+3)^0,f,c
  3131   000CCE  5005               	movf	___lldiv@divisor^0,w,c
  3132   000CD0  5C01               	subwf	___lldiv@dividend^0,w,c
  3133   000CD2  5006               	movf	(___lldiv@divisor+1)^0,w,c
  3134   000CD4  5802               	subwfb	(___lldiv@dividend+1)^0,w,c
  3135   000CD6  5007               	movf	(___lldiv@divisor+2)^0,w,c
  3136   000CD8  5803               	subwfb	(___lldiv@dividend+2)^0,w,c
  3137   000CDA  5008               	movf	(___lldiv@divisor+3)^0,w,c
  3138   000CDC  5804               	subwfb	(___lldiv@dividend+3)^0,w,c
  3139   000CDE  A0D8               	btfss	status,0,c
  3140   000CE0  EF74  F006         	goto	i2u113_41
  3141   000CE4  EF76  F006         	goto	i2u113_40
  3142   000CE8                     i2u113_41:
  3143   000CE8  EF7F  F006         	goto	i2l1798
  3144   000CEC                     i2u113_40:
  3145   000CEC  5005               	movf	___lldiv@divisor^0,w,c
  3146   000CEE  5E01               	subwf	___lldiv@dividend^0,f,c
  3147   000CF0  5006               	movf	(___lldiv@divisor+1)^0,w,c
  3148   000CF2  5A02               	subwfb	(___lldiv@dividend+1)^0,f,c
  3149   000CF4  5007               	movf	(___lldiv@divisor+2)^0,w,c
  3150   000CF6  5A03               	subwfb	(___lldiv@dividend+2)^0,f,c
  3151   000CF8  5008               	movf	(___lldiv@divisor+3)^0,w,c
  3152   000CFA  5A04               	subwfb	(___lldiv@dividend+3)^0,f,c
  3153   000CFC  8009               	bsf	___lldiv@quotient^0,0,c
  3154   000CFE                     i2l1798:
  3155   000CFE  90D8               	bcf	status,0,c
  3156   000D00  3208               	rrcf	(___lldiv@divisor+3)^0,f,c
  3157   000D02  3207               	rrcf	(___lldiv@divisor+2)^0,f,c
  3158   000D04  3206               	rrcf	(___lldiv@divisor+1)^0,f,c
  3159   000D06  3205               	rrcf	___lldiv@divisor^0,f,c
  3160   000D08  2E0D               	decfsz	___lldiv@counter^0,f,c
  3161   000D0A  EF62  F006         	goto	i2l1790
  3162   000D0E                     i2l255:
  3163   000D0E  C009  F001         	movff	___lldiv@quotient,?___lldiv
  3164   000D12  C00A  F002         	movff	___lldiv@quotient+1,?___lldiv+1
  3165   000D16  C00B  F003         	movff	___lldiv@quotient+2,?___lldiv+2
  3166   000D1A  C00C  F004         	movff	___lldiv@quotient+3,?___lldiv+3
  3167   000D1E  0012               	return		;funcret
  3168   000D20                     __end_of___lldiv:
  3169                           	callstack 0
  3170   000000                     
  3171                           	psect	rparam
  3172   000000                     
  3173                           	psect	temp
  3174   00005C                     btemp:
  3175                           	callstack 0
  3176   00005C                     	ds	1
  3177   000000                     int$flags	set	btemp
  3178   000000                     wtemp8	set	btemp+1
  3179   000000                     ttemp5	set	btemp+1
  3180   000000                     ttemp6	set	btemp+4
  3181   000000                     ttemp7	set	btemp+8
  3182                           
  3183                           	psect	idloc
  3184                           
  3185                           ;Config register IDLOC0 @ 0x200000
  3186                           ;	unspecified, using default values
  3187   200000                     	org	2097152
  3188   200000  FFFF               	dw	65535
  3189                           
  3190                           ;Config register IDLOC1 @ 0x200002
  3191                           ;	unspecified, using default values
  3192   200002                     	org	2097154
  3193   200002  FFFF               	dw	65535
  3194                           
  3195                           ;Config register IDLOC2 @ 0x200004
  3196                           ;	unspecified, using default values
  3197   200004                     	org	2097156
  3198   200004  FFFF               	dw	65535
  3199                           
  3200                           ;Config register IDLOC3 @ 0x200006
  3201                           ;	unspecified, using default values
  3202   200006                     	org	2097158
  3203   200006  FFFF               	dw	65535
  3204                           
  3205                           ;Config register IDLOC4 @ 0x200008
  3206                           ;	unspecified, using default values
  3207   200008                     	org	2097160
  3208   200008  FFFF               	dw	65535
  3209                           
  3210                           ;Config register IDLOC5 @ 0x20000A
  3211                           ;	unspecified, using default values
  3212   20000A                     	org	2097162
  3213   20000A  FFFF               	dw	65535
  3214                           
  3215                           ;Config register IDLOC6 @ 0x20000C
  3216                           ;	unspecified, using default values
  3217   20000C                     	org	2097164
  3218   20000C  FFFF               	dw	65535
  3219                           
  3220                           ;Config register IDLOC7 @ 0x20000E
  3221                           ;	unspecified, using default values
  3222   20000E                     	org	2097166
  3223   20000E  FFFF               	dw	65535
  3224                           
  3225                           ;Config register IDLOC8 @ 0x200010
  3226                           ;	unspecified, using default values
  3227   200010                     	org	2097168
  3228   200010  FFFF               	dw	65535
  3229                           
  3230                           ;Config register IDLOC9 @ 0x200012
  3231                           ;	unspecified, using default values
  3232   200012                     	org	2097170
  3233   200012  FFFF               	dw	65535
  3234                           
  3235                           ;Config register IDLOC10 @ 0x200014
  3236                           ;	unspecified, using default values
  3237   200014                     	org	2097172
  3238   200014  FFFF               	dw	65535
  3239                           
  3240                           ;Config register IDLOC11 @ 0x200016
  3241                           ;	unspecified, using default values
  3242   200016                     	org	2097174
  3243   200016  FFFF               	dw	65535
  3244                           
  3245                           ;Config register IDLOC12 @ 0x200018
  3246                           ;	unspecified, using default values
  3247   200018                     	org	2097176
  3248   200018  FFFF               	dw	65535
  3249                           
  3250                           ;Config register IDLOC13 @ 0x20001A
  3251                           ;	unspecified, using default values
  3252   20001A                     	org	2097178
  3253   20001A  FFFF               	dw	65535
  3254                           
  3255                           ;Config register IDLOC14 @ 0x20001C
  3256                           ;	unspecified, using default values
  3257   20001C                     	org	2097180
  3258   20001C  FFFF               	dw	65535
  3259                           
  3260                           ;Config register IDLOC15 @ 0x20001E
  3261                           ;	unspecified, using default values
  3262   20001E                     	org	2097182
  3263   20001E  FFFF               	dw	65535
  3264                           
  3265                           ;Config register IDLOC16 @ 0x200020
  3266                           ;	unspecified, using default values
  3267   200020                     	org	2097184
  3268   200020  FFFF               	dw	65535
  3269                           
  3270                           ;Config register IDLOC17 @ 0x200022
  3271                           ;	unspecified, using default values
  3272   200022                     	org	2097186
  3273   200022  FFFF               	dw	65535
  3274                           
  3275                           ;Config register IDLOC18 @ 0x200024
  3276                           ;	unspecified, using default values
  3277   200024                     	org	2097188
  3278   200024  FFFF               	dw	65535
  3279                           
  3280                           ;Config register IDLOC19 @ 0x200026
  3281                           ;	unspecified, using default values
  3282   200026                     	org	2097190
  3283   200026  FFFF               	dw	65535
  3284                           
  3285                           ;Config register IDLOC20 @ 0x200028
  3286                           ;	unspecified, using default values
  3287   200028                     	org	2097192
  3288   200028  FFFF               	dw	65535
  3289                           
  3290                           ;Config register IDLOC21 @ 0x20002A
  3291                           ;	unspecified, using default values
  3292   20002A                     	org	2097194
  3293   20002A  FFFF               	dw	65535
  3294                           
  3295                           ;Config register IDLOC22 @ 0x20002C
  3296                           ;	unspecified, using default values
  3297   20002C                     	org	2097196
  3298   20002C  FFFF               	dw	65535
  3299                           
  3300                           ;Config register IDLOC23 @ 0x20002E
  3301                           ;	unspecified, using default values
  3302   20002E                     	org	2097198
  3303   20002E  FFFF               	dw	65535
  3304                           
  3305                           ;Config register IDLOC24 @ 0x200030
  3306                           ;	unspecified, using default values
  3307   200030                     	org	2097200
  3308   200030  FFFF               	dw	65535
  3309                           
  3310                           ;Config register IDLOC25 @ 0x200032
  3311                           ;	unspecified, using default values
  3312   200032                     	org	2097202
  3313   200032  FFFF               	dw	65535
  3314                           
  3315                           ;Config register IDLOC26 @ 0x200034
  3316                           ;	unspecified, using default values
  3317   200034                     	org	2097204
  3318   200034  FFFF               	dw	65535
  3319                           
  3320                           ;Config register IDLOC27 @ 0x200036
  3321                           ;	unspecified, using default values
  3322   200036                     	org	2097206
  3323   200036  FFFF               	dw	65535
  3324                           
  3325                           ;Config register IDLOC28 @ 0x200038
  3326                           ;	unspecified, using default values
  3327   200038                     	org	2097208
  3328   200038  FFFF               	dw	65535
  3329                           
  3330                           ;Config register IDLOC29 @ 0x20003A
  3331                           ;	unspecified, using default values
  3332   20003A                     	org	2097210
  3333   20003A  FFFF               	dw	65535
  3334                           
  3335                           ;Config register IDLOC30 @ 0x20003C
  3336                           ;	unspecified, using default values
  3337   20003C                     	org	2097212
  3338   20003C  FFFF               	dw	65535
  3339                           
  3340                           ;Config register IDLOC31 @ 0x20003E
  3341                           ;	unspecified, using default values
  3342   20003E                     	org	2097214
  3343   20003E  FFFF               	dw	65535
  3344                           
  3345                           ;Config register IDLOC32 @ 0x200040
  3346                           ;	unspecified, using default values
  3347   200040                     	org	2097216
  3348   200040  FFFF               	dw	65535
  3349                           
  3350                           ;Config register IDLOC33 @ 0x200042
  3351                           ;	unspecified, using default values
  3352   200042                     	org	2097218
  3353   200042  FFFF               	dw	65535
  3354                           
  3355                           ;Config register IDLOC34 @ 0x200044
  3356                           ;	unspecified, using default values
  3357   200044                     	org	2097220
  3358   200044  FFFF               	dw	65535
  3359                           
  3360                           ;Config register IDLOC35 @ 0x200046
  3361                           ;	unspecified, using default values
  3362   200046                     	org	2097222
  3363   200046  FFFF               	dw	65535
  3364                           
  3365                           ;Config register IDLOC36 @ 0x200048
  3366                           ;	unspecified, using default values
  3367   200048                     	org	2097224
  3368   200048  FFFF               	dw	65535
  3369                           
  3370                           ;Config register IDLOC37 @ 0x20004A
  3371                           ;	unspecified, using default values
  3372   20004A                     	org	2097226
  3373   20004A  FFFF               	dw	65535
  3374                           
  3375                           ;Config register IDLOC38 @ 0x20004C
  3376                           ;	unspecified, using default values
  3377   20004C                     	org	2097228
  3378   20004C  FFFF               	dw	65535
  3379                           
  3380                           ;Config register IDLOC39 @ 0x20004E
  3381                           ;	unspecified, using default values
  3382   20004E                     	org	2097230
  3383   20004E  FFFF               	dw	65535
  3384                           
  3385                           ;Config register IDLOC40 @ 0x200050
  3386                           ;	unspecified, using default values
  3387   200050                     	org	2097232
  3388   200050  FFFF               	dw	65535
  3389                           
  3390                           ;Config register IDLOC41 @ 0x200052
  3391                           ;	unspecified, using default values
  3392   200052                     	org	2097234
  3393   200052  FFFF               	dw	65535
  3394                           
  3395                           ;Config register IDLOC42 @ 0x200054
  3396                           ;	unspecified, using default values
  3397   200054                     	org	2097236
  3398   200054  FFFF               	dw	65535
  3399                           
  3400                           ;Config register IDLOC43 @ 0x200056
  3401                           ;	unspecified, using default values
  3402   200056                     	org	2097238
  3403   200056  FFFF               	dw	65535
  3404                           
  3405                           ;Config register IDLOC44 @ 0x200058
  3406                           ;	unspecified, using default values
  3407   200058                     	org	2097240
  3408   200058  FFFF               	dw	65535
  3409                           
  3410                           ;Config register IDLOC45 @ 0x20005A
  3411                           ;	unspecified, using default values
  3412   20005A                     	org	2097242
  3413   20005A  FFFF               	dw	65535
  3414                           
  3415                           ;Config register IDLOC46 @ 0x20005C
  3416                           ;	unspecified, using default values
  3417   20005C                     	org	2097244
  3418   20005C  FFFF               	dw	65535
  3419                           
  3420                           ;Config register IDLOC47 @ 0x20005E
  3421                           ;	unspecified, using default values
  3422   20005E                     	org	2097246
  3423   20005E  FFFF               	dw	65535
  3424                           
  3425                           ;Config register IDLOC48 @ 0x200060
  3426                           ;	unspecified, using default values
  3427   200060                     	org	2097248
  3428   200060  FFFF               	dw	65535
  3429                           
  3430                           ;Config register IDLOC49 @ 0x200062
  3431                           ;	unspecified, using default values
  3432   200062                     	org	2097250
  3433   200062  FFFF               	dw	65535
  3434                           
  3435                           ;Config register IDLOC50 @ 0x200064
  3436                           ;	unspecified, using default values
  3437   200064                     	org	2097252
  3438   200064  FFFF               	dw	65535
  3439                           
  3440                           ;Config register IDLOC51 @ 0x200066
  3441                           ;	unspecified, using default values
  3442   200066                     	org	2097254
  3443   200066  FFFF               	dw	65535
  3444                           
  3445                           ;Config register IDLOC52 @ 0x200068
  3446                           ;	unspecified, using default values
  3447   200068                     	org	2097256
  3448   200068  FFFF               	dw	65535
  3449                           
  3450                           ;Config register IDLOC53 @ 0x20006A
  3451                           ;	unspecified, using default values
  3452   20006A                     	org	2097258
  3453   20006A  FFFF               	dw	65535
  3454                           
  3455                           ;Config register IDLOC54 @ 0x20006C
  3456                           ;	unspecified, using default values
  3457   20006C                     	org	2097260
  3458   20006C  FFFF               	dw	65535
  3459                           
  3460                           ;Config register IDLOC55 @ 0x20006E
  3461                           ;	unspecified, using default values
  3462   20006E                     	org	2097262
  3463   20006E  FFFF               	dw	65535
  3464                           
  3465                           ;Config register IDLOC56 @ 0x200070
  3466                           ;	unspecified, using default values
  3467   200070                     	org	2097264
  3468   200070  FFFF               	dw	65535
  3469                           
  3470                           ;Config register IDLOC57 @ 0x200072
  3471                           ;	unspecified, using default values
  3472   200072                     	org	2097266
  3473   200072  FFFF               	dw	65535
  3474                           
  3475                           ;Config register IDLOC58 @ 0x200074
  3476                           ;	unspecified, using default values
  3477   200074                     	org	2097268
  3478   200074  FFFF               	dw	65535
  3479                           
  3480                           ;Config register IDLOC59 @ 0x200076
  3481                           ;	unspecified, using default values
  3482   200076                     	org	2097270
  3483   200076  FFFF               	dw	65535
  3484                           
  3485                           ;Config register IDLOC60 @ 0x200078
  3486                           ;	unspecified, using default values
  3487   200078                     	org	2097272
  3488   200078  FFFF               	dw	65535
  3489                           
  3490                           ;Config register IDLOC61 @ 0x20007A
  3491                           ;	unspecified, using default values
  3492   20007A                     	org	2097274
  3493   20007A  FFFF               	dw	65535
  3494                           
  3495                           ;Config register IDLOC62 @ 0x20007C
  3496                           ;	unspecified, using default values
  3497   20007C                     	org	2097276
  3498   20007C  FFFF               	dw	65535
  3499                           
  3500                           ;Config register IDLOC63 @ 0x20007E
  3501                           ;	unspecified, using default values
  3502   20007E                     	org	2097278
  3503   20007E  FFFF               	dw	65535
  3504                           
  3505                           ;Config register IDLOC64 @ 0x200080
  3506                           ;	unspecified, using default values
  3507   200080                     	org	2097280
  3508   200080  FFFF               	dw	65535
  3509                           
  3510                           ;Config register IDLOC65 @ 0x200082
  3511                           ;	unspecified, using default values
  3512   200082                     	org	2097282
  3513   200082  FFFF               	dw	65535
  3514                           
  3515                           ;Config register IDLOC66 @ 0x200084
  3516                           ;	unspecified, using default values
  3517   200084                     	org	2097284
  3518   200084  FFFF               	dw	65535
  3519                           
  3520                           ;Config register IDLOC67 @ 0x200086
  3521                           ;	unspecified, using default values
  3522   200086                     	org	2097286
  3523   200086  FFFF               	dw	65535
  3524                           
  3525                           ;Config register IDLOC68 @ 0x200088
  3526                           ;	unspecified, using default values
  3527   200088                     	org	2097288
  3528   200088  FFFF               	dw	65535
  3529                           
  3530                           ;Config register IDLOC69 @ 0x20008A
  3531                           ;	unspecified, using default values
  3532   20008A                     	org	2097290
  3533   20008A  FFFF               	dw	65535
  3534                           
  3535                           ;Config register IDLOC70 @ 0x20008C
  3536                           ;	unspecified, using default values
  3537   20008C                     	org	2097292
  3538   20008C  FFFF               	dw	65535
  3539                           
  3540                           ;Config register IDLOC71 @ 0x20008E
  3541                           ;	unspecified, using default values
  3542   20008E                     	org	2097294
  3543   20008E  FFFF               	dw	65535
  3544                           
  3545                           ;Config register IDLOC72 @ 0x200090
  3546                           ;	unspecified, using default values
  3547   200090                     	org	2097296
  3548   200090  FFFF               	dw	65535
  3549                           
  3550                           ;Config register IDLOC73 @ 0x200092
  3551                           ;	unspecified, using default values
  3552   200092                     	org	2097298
  3553   200092  FFFF               	dw	65535
  3554                           
  3555                           ;Config register IDLOC74 @ 0x200094
  3556                           ;	unspecified, using default values
  3557   200094                     	org	2097300
  3558   200094  FFFF               	dw	65535
  3559                           
  3560                           ;Config register IDLOC75 @ 0x200096
  3561                           ;	unspecified, using default values
  3562   200096                     	org	2097302
  3563   200096  FFFF               	dw	65535
  3564                           
  3565                           ;Config register IDLOC76 @ 0x200098
  3566                           ;	unspecified, using default values
  3567   200098                     	org	2097304
  3568   200098  FFFF               	dw	65535
  3569                           
  3570                           ;Config register IDLOC77 @ 0x20009A
  3571                           ;	unspecified, using default values
  3572   20009A                     	org	2097306
  3573   20009A  FFFF               	dw	65535
  3574                           
  3575                           ;Config register IDLOC78 @ 0x20009C
  3576                           ;	unspecified, using default values
  3577   20009C                     	org	2097308
  3578   20009C  FFFF               	dw	65535
  3579                           
  3580                           ;Config register IDLOC79 @ 0x20009E
  3581                           ;	unspecified, using default values
  3582   20009E                     	org	2097310
  3583   20009E  FFFF               	dw	65535
  3584                           
  3585                           ;Config register IDLOC80 @ 0x2000A0
  3586                           ;	unspecified, using default values
  3587   2000A0                     	org	2097312
  3588   2000A0  FFFF               	dw	65535
  3589                           
  3590                           ;Config register IDLOC81 @ 0x2000A2
  3591                           ;	unspecified, using default values
  3592   2000A2                     	org	2097314
  3593   2000A2  FFFF               	dw	65535
  3594                           
  3595                           ;Config register IDLOC82 @ 0x2000A4
  3596                           ;	unspecified, using default values
  3597   2000A4                     	org	2097316
  3598   2000A4  FFFF               	dw	65535
  3599                           
  3600                           ;Config register IDLOC83 @ 0x2000A6
  3601                           ;	unspecified, using default values
  3602   2000A6                     	org	2097318
  3603   2000A6  FFFF               	dw	65535
  3604                           
  3605                           ;Config register IDLOC84 @ 0x2000A8
  3606                           ;	unspecified, using default values
  3607   2000A8                     	org	2097320
  3608   2000A8  FFFF               	dw	65535
  3609                           
  3610                           ;Config register IDLOC85 @ 0x2000AA
  3611                           ;	unspecified, using default values
  3612   2000AA                     	org	2097322
  3613   2000AA  FFFF               	dw	65535
  3614                           
  3615                           ;Config register IDLOC86 @ 0x2000AC
  3616                           ;	unspecified, using default values
  3617   2000AC                     	org	2097324
  3618   2000AC  FFFF               	dw	65535
  3619                           
  3620                           ;Config register IDLOC87 @ 0x2000AE
  3621                           ;	unspecified, using default values
  3622   2000AE                     	org	2097326
  3623   2000AE  FFFF               	dw	65535
  3624                           
  3625                           ;Config register IDLOC88 @ 0x2000B0
  3626                           ;	unspecified, using default values
  3627   2000B0                     	org	2097328
  3628   2000B0  FFFF               	dw	65535
  3629                           
  3630                           ;Config register IDLOC89 @ 0x2000B2
  3631                           ;	unspecified, using default values
  3632   2000B2                     	org	2097330
  3633   2000B2  FFFF               	dw	65535
  3634                           
  3635                           ;Config register IDLOC90 @ 0x2000B4
  3636                           ;	unspecified, using default values
  3637   2000B4                     	org	2097332
  3638   2000B4  FFFF               	dw	65535
  3639                           
  3640                           ;Config register IDLOC91 @ 0x2000B6
  3641                           ;	unspecified, using default values
  3642   2000B6                     	org	2097334
  3643   2000B6  FFFF               	dw	65535
  3644                           
  3645                           ;Config register IDLOC92 @ 0x2000B8
  3646                           ;	unspecified, using default values
  3647   2000B8                     	org	2097336
  3648   2000B8  FFFF               	dw	65535
  3649                           
  3650                           ;Config register IDLOC93 @ 0x2000BA
  3651                           ;	unspecified, using default values
  3652   2000BA                     	org	2097338
  3653   2000BA  FFFF               	dw	65535
  3654                           
  3655                           ;Config register IDLOC94 @ 0x2000BC
  3656                           ;	unspecified, using default values
  3657   2000BC                     	org	2097340
  3658   2000BC  FFFF               	dw	65535
  3659                           
  3660                           ;Config register IDLOC95 @ 0x2000BE
  3661                           ;	unspecified, using default values
  3662   2000BE                     	org	2097342
  3663   2000BE  FFFF               	dw	65535
  3664                           
  3665                           ;Config register IDLOC96 @ 0x2000C0
  3666                           ;	unspecified, using default values
  3667   2000C0                     	org	2097344
  3668   2000C0  FFFF               	dw	65535
  3669                           
  3670                           ;Config register IDLOC97 @ 0x2000C2
  3671                           ;	unspecified, using default values
  3672   2000C2                     	org	2097346
  3673   2000C2  FFFF               	dw	65535
  3674                           
  3675                           ;Config register IDLOC98 @ 0x2000C4
  3676                           ;	unspecified, using default values
  3677   2000C4                     	org	2097348
  3678   2000C4  FFFF               	dw	65535
  3679                           
  3680                           ;Config register IDLOC99 @ 0x2000C6
  3681                           ;	unspecified, using default values
  3682   2000C6                     	org	2097350
  3683   2000C6  FFFF               	dw	65535
  3684                           
  3685                           ;Config register IDLOC100 @ 0x2000C8
  3686                           ;	unspecified, using default values
  3687   2000C8                     	org	2097352
  3688   2000C8  FFFF               	dw	65535
  3689                           
  3690                           ;Config register IDLOC101 @ 0x2000CA
  3691                           ;	unspecified, using default values
  3692   2000CA                     	org	2097354
  3693   2000CA  FFFF               	dw	65535
  3694                           
  3695                           ;Config register IDLOC102 @ 0x2000CC
  3696                           ;	unspecified, using default values
  3697   2000CC                     	org	2097356
  3698   2000CC  FFFF               	dw	65535
  3699                           
  3700                           ;Config register IDLOC103 @ 0x2000CE
  3701                           ;	unspecified, using default values
  3702   2000CE                     	org	2097358
  3703   2000CE  FFFF               	dw	65535
  3704                           
  3705                           ;Config register IDLOC104 @ 0x2000D0
  3706                           ;	unspecified, using default values
  3707   2000D0                     	org	2097360
  3708   2000D0  FFFF               	dw	65535
  3709                           
  3710                           ;Config register IDLOC105 @ 0x2000D2
  3711                           ;	unspecified, using default values
  3712   2000D2                     	org	2097362
  3713   2000D2  FFFF               	dw	65535
  3714                           
  3715                           ;Config register IDLOC106 @ 0x2000D4
  3716                           ;	unspecified, using default values
  3717   2000D4                     	org	2097364
  3718   2000D4  FFFF               	dw	65535
  3719                           
  3720                           ;Config register IDLOC107 @ 0x2000D6
  3721                           ;	unspecified, using default values
  3722   2000D6                     	org	2097366
  3723   2000D6  FFFF               	dw	65535
  3724                           
  3725                           ;Config register IDLOC108 @ 0x2000D8
  3726                           ;	unspecified, using default values
  3727   2000D8                     	org	2097368
  3728   2000D8  FFFF               	dw	65535
  3729                           
  3730                           ;Config register IDLOC109 @ 0x2000DA
  3731                           ;	unspecified, using default values
  3732   2000DA                     	org	2097370
  3733   2000DA  FFFF               	dw	65535
  3734                           
  3735                           ;Config register IDLOC110 @ 0x2000DC
  3736                           ;	unspecified, using default values
  3737   2000DC                     	org	2097372
  3738   2000DC  FFFF               	dw	65535
  3739                           
  3740                           ;Config register IDLOC111 @ 0x2000DE
  3741                           ;	unspecified, using default values
  3742   2000DE                     	org	2097374
  3743   2000DE  FFFF               	dw	65535
  3744                           
  3745                           ;Config register IDLOC112 @ 0x2000E0
  3746                           ;	unspecified, using default values
  3747   2000E0                     	org	2097376
  3748   2000E0  FFFF               	dw	65535
  3749                           
  3750                           ;Config register IDLOC113 @ 0x2000E2
  3751                           ;	unspecified, using default values
  3752   2000E2                     	org	2097378
  3753   2000E2  FFFF               	dw	65535
  3754                           
  3755                           ;Config register IDLOC114 @ 0x2000E4
  3756                           ;	unspecified, using default values
  3757   2000E4                     	org	2097380
  3758   2000E4  FFFF               	dw	65535
  3759                           
  3760                           ;Config register IDLOC115 @ 0x2000E6
  3761                           ;	unspecified, using default values
  3762   2000E6                     	org	2097382
  3763   2000E6  FFFF               	dw	65535
  3764                           
  3765                           ;Config register IDLOC116 @ 0x2000E8
  3766                           ;	unspecified, using default values
  3767   2000E8                     	org	2097384
  3768   2000E8  FFFF               	dw	65535
  3769                           
  3770                           ;Config register IDLOC117 @ 0x2000EA
  3771                           ;	unspecified, using default values
  3772   2000EA                     	org	2097386
  3773   2000EA  FFFF               	dw	65535
  3774                           
  3775                           ;Config register IDLOC118 @ 0x2000EC
  3776                           ;	unspecified, using default values
  3777   2000EC                     	org	2097388
  3778   2000EC  FFFF               	dw	65535
  3779                           
  3780                           ;Config register IDLOC119 @ 0x2000EE
  3781                           ;	unspecified, using default values
  3782   2000EE                     	org	2097390
  3783   2000EE  FFFF               	dw	65535
  3784                           
  3785                           ;Config register IDLOC120 @ 0x2000F0
  3786                           ;	unspecified, using default values
  3787   2000F0                     	org	2097392
  3788   2000F0  FFFF               	dw	65535
  3789                           
  3790                           ;Config register IDLOC121 @ 0x2000F2
  3791                           ;	unspecified, using default values
  3792   2000F2                     	org	2097394
  3793   2000F2  FFFF               	dw	65535
  3794                           
  3795                           ;Config register IDLOC122 @ 0x2000F4
  3796                           ;	unspecified, using default values
  3797   2000F4                     	org	2097396
  3798   2000F4  FFFF               	dw	65535
  3799                           
  3800                           ;Config register IDLOC123 @ 0x2000F6
  3801                           ;	unspecified, using default values
  3802   2000F6                     	org	2097398
  3803   2000F6  FFFF               	dw	65535
  3804                           
  3805                           ;Config register IDLOC124 @ 0x2000F8
  3806                           ;	unspecified, using default values
  3807   2000F8                     	org	2097400
  3808   2000F8  FFFF               	dw	65535
  3809                           
  3810                           ;Config register IDLOC125 @ 0x2000FA
  3811                           ;	unspecified, using default values
  3812   2000FA                     	org	2097402
  3813   2000FA  FFFF               	dw	65535
  3814                           
  3815                           ;Config register IDLOC126 @ 0x2000FC
  3816                           ;	unspecified, using default values
  3817   2000FC                     	org	2097404
  3818   2000FC  FFFF               	dw	65535
  3819                           
  3820                           ;Config register IDLOC127 @ 0x2000FE
  3821                           ;	unspecified, using default values
  3822   2000FE                     	org	2097406
  3823   2000FE  FFFF               	dw	65535
  3824                           
  3825                           	psect	config
  3826                           
  3827                           ;Config register CONFIG1L @ 0x300000
  3828                           ;	External Oscillator mode Selection bits
  3829                           ;	FEXTOSC = OFF, Oscillator not enabled
  3830                           ;	Power-up default value for COSC bits
  3831                           ;	RSTOSC = HFINTOSC_64MHZ, HFINTOSC with HFFRQ = 64 MHz and CDIV = 1:1
  3832   300000                     	org	3145728
  3833   300000  8C                 	db	140
  3834                           
  3835                           ;Config register CONFIG1H @ 0x300001
  3836                           ;	Clock Out Enable bit
  3837                           ;	CLKOUTEN = OFF, CLKOUT function is disabled
  3838                           ;	Clock Switch Enable bit
  3839                           ;	CSWEN = 0x1, unprogrammed default
  3840                           ;	Fail-Safe Clock Monitor Enable bit
  3841                           ;	FCMEN = 0x1, unprogrammed default
  3842   300001                     	org	3145729
  3843   300001  FF                 	db	255
  3844                           
  3845                           ;Config register CONFIG2L @ 0x300002
  3846                           ;	unspecified, using default values
  3847                           ;	Master Clear Enable bit
  3848                           ;	MCLRE = 0x1, unprogrammed default
  3849                           ;	Power-up Timer Enable bit
  3850                           ;	PWRTE = 0x1, unprogrammed default
  3851                           ;	Low-power BOR enable bit
  3852                           ;	LPBOREN = 0x1, unprogrammed default
  3853                           ;	Brown-out Reset Enable bits
  3854                           ;	BOREN = 0x3, unprogrammed default
  3855   300002                     	org	3145730
  3856   300002  FF                 	db	255
  3857                           
  3858                           ;Config register CONFIG2H @ 0x300003
  3859                           ;	Brown Out Reset Voltage selection bits
  3860                           ;	BORV = VBOR_190, Brown-out Reset Voltage (VBOR) set to 1.90V
  3861                           ;	ZCD Disable bit
  3862                           ;	ZCD = 0x1, unprogrammed default
  3863                           ;	PPSLOCK bit One-Way Set Enable bit
  3864                           ;	PPS1WAY = 0x1, unprogrammed default
  3865                           ;	Stack Full/Underflow Reset Enable bit
  3866                           ;	STVREN = 0x1, unprogrammed default
  3867                           ;	Extended Instruction Set Enable bit
  3868                           ;	XINST = OFF, Extended Instruction Set and Indexed Addressing Mode disabled
  3869   300003                     	org	3145731
  3870   300003  FF                 	db	255
  3871                           
  3872                           ;Config register CONFIG3L @ 0x300004
  3873                           ;	WDT Period Select bits
  3874                           ;	WDTCPS = 0x1F, unprogrammed default
  3875                           ;	WDT operating mode
  3876                           ;	WDTE = OFF, WDT Disabled
  3877   300004                     	org	3145732
  3878   300004  9F                 	db	159
  3879                           
  3880                           ;Config register CONFIG3H @ 0x300005
  3881                           ;	unspecified, using default values
  3882                           ;	WDT Window Select bits
  3883                           ;	WDTCWS = 0x7, unprogrammed default
  3884                           ;	WDT input clock selector
  3885                           ;	WDTCCS = 0x7, unprogrammed default
  3886   300005                     	org	3145733
  3887   300005  FF                 	db	255
  3888                           
  3889                           ;Config register CONFIG4L @ 0x300006
  3890                           ;	unspecified, using default values
  3891                           ;	Write Protection Block 0
  3892                           ;	WRT0 = 0x1, unprogrammed default
  3893                           ;	Write Protection Block 1
  3894                           ;	WRT1 = 0x1, unprogrammed default
  3895                           ;	Write Protection Block 2
  3896                           ;	WRT2 = 0x1, unprogrammed default
  3897                           ;	Write Protection Block 3
  3898                           ;	WRT3 = 0x1, unprogrammed default
  3899                           ;	Write Protection Block 4
  3900                           ;	WRT4 = 0x1, unprogrammed default
  3901                           ;	Write Protection Block 5
  3902                           ;	WRT5 = 0x1, unprogrammed default
  3903                           ;	Write Protection Block 6
  3904                           ;	WRT6 = 0x1, unprogrammed default
  3905                           ;	Write Protection Block 7
  3906                           ;	WRT7 = 0x1, unprogrammed default
  3907   300006                     	org	3145734
  3908   300006  FF                 	db	255
  3909                           
  3910                           ;Config register CONFIG4H @ 0x300007
  3911                           ;	Configuration Register Write Protection bit
  3912                           ;	WRTC = 0x1, unprogrammed default
  3913                           ;	Boot Block Write Protection bit
  3914                           ;	WRTB = 0x1, unprogrammed default
  3915                           ;	Data EEPROM Write Protection bit
  3916                           ;	WRTD = 0x1, unprogrammed default
  3917                           ;	Scanner Enable bit
  3918                           ;	SCANE = 0x1, unprogrammed default
  3919                           ;	Low Voltage Programming Enable bit
  3920                           ;	LVP = ON, Low voltage programming enabled. MCLR/VPP pin function is MCLR. MCLRE config
      +                          uration bit is ignored
  3921   300007                     	org	3145735
  3922   300007  FF                 	db	255
  3923                           
  3924                           ;Config register CONFIG5L @ 0x300008
  3925                           ;	unspecified, using default values
  3926                           ;	UserNVM Program Memory Code Protection bit
  3927                           ;	CP = 0x1, unprogrammed default
  3928                           ;	DataNVM Memory Code Protection bit
  3929                           ;	CPD = 0x1, unprogrammed default
  3930   300008                     	org	3145736
  3931   300008  FF                 	db	255
  3932                           
  3933                           ;Config register CONFIG5H @ 0x300009
  3934                           ;	unspecified, using default values
  3935   300009                     	org	3145737
  3936   300009  FF                 	db	255
  3937                           
  3938                           ;Config register CONFIG6L @ 0x30000A
  3939                           ;	unspecified, using default values
  3940                           ;	Table Read Protection Block 0
  3941                           ;	EBTR0 = 0x1, unprogrammed default
  3942                           ;	Table Read Protection Block 1
  3943                           ;	EBTR1 = 0x1, unprogrammed default
  3944                           ;	Table Read Protection Block 2
  3945                           ;	EBTR2 = 0x1, unprogrammed default
  3946                           ;	Table Read Protection Block 3
  3947                           ;	EBTR3 = 0x1, unprogrammed default
  3948                           ;	Table Read Protection Block 4
  3949                           ;	EBTR4 = 0x1, unprogrammed default
  3950                           ;	Table Read Protection Block 5
  3951                           ;	EBTR5 = 0x1, unprogrammed default
  3952                           ;	Table Read Protection Block 6
  3953                           ;	EBTR6 = 0x1, unprogrammed default
  3954                           ;	Table Read Protection Block 7
  3955                           ;	EBTR7 = 0x1, unprogrammed default
  3956   30000A                     	org	3145738
  3957   30000A  FF                 	db	255
  3958                           
  3959                           ;Config register CONFIG6H @ 0x30000B
  3960                           ;	unspecified, using default values
  3961                           ;	Boot Block Table Read Protection bit
  3962                           ;	EBTRB = 0x1, unprogrammed default
  3963   30000B                     	org	3145739
  3964   30000B  FF                 	db	255
  3965                           tosu	equ	0xFFF
  3966                           tosh	equ	0xFFE
  3967                           tosl	equ	0xFFD
  3968                           stkptr	equ	0xFFC
  3969                           pclatu	equ	0xFFB
  3970                           pclath	equ	0xFFA
  3971                           pcl	equ	0xFF9
  3972                           tblptru	equ	0xFF8
  3973                           tblptrh	equ	0xFF7
  3974                           tblptrl	equ	0xFF6
  3975                           tablat	equ	0xFF5
  3976                           prodh	equ	0xFF4
  3977                           prodl	equ	0xFF3
  3978                           indf0	equ	0xFEF
  3979                           postinc0	equ	0xFEE
  3980                           postdec0	equ	0xFED
  3981                           preinc0	equ	0xFEC
  3982                           plusw0	equ	0xFEB
  3983                           fsr0h	equ	0xFEA
  3984                           fsr0l	equ	0xFE9
  3985                           wreg	equ	0xFE8
  3986                           indf1	equ	0xFE7
  3987                           postinc1	equ	0xFE6
  3988                           postdec1	equ	0xFE5
  3989                           preinc1	equ	0xFE4
  3990                           plusw1	equ	0xFE3
  3991                           fsr1h	equ	0xFE2
  3992                           fsr1l	equ	0xFE1
  3993                           bsr	equ	0xFE0
  3994                           indf2	equ	0xFDF
  3995                           postinc2	equ	0xFDE
  3996                           postdec2	equ	0xFDD
  3997                           preinc2	equ	0xFDC
  3998                           plusw2	equ	0xFDB
  3999                           fsr2h	equ	0xFDA
  4000                           fsr2l	equ	0xFD9
  4001                           status	equ	0xFD8

Data Sizes:
    Strings     0
    Constant    0
    Data        0
    BSS         51
    Persistent  0
    Stack       0

Auto Spaces:
    Space          Size  Autos    Used
    COMRAM           94     48      91
    BANK0           160      0       8
    BANK1           256      0       0
    BANK2           256      0       0
    BANK3           256      0       0
    BANK4           256      0       0
    BANK5           256      0       0
    BANK6           256      0       0
    BANK7           256      0       0
    BANK8           256      0       0
    BANK9           256      0       0
    BANK10          256      0       0
    BANK11          256      0       0
    BANK12          256      0       0
    BANK14           31      0       0

Pointer List with Targets:

    __heap_hi.......next	PTR struct chunk size(2) Largest target is 0

    __heap_hi.....next	PTR struct chunk size(2) Largest target is 0

    __heap_hi...next	PTR struct chunk size(2) Largest target is 0

    ?___simple_search_fl...next	PTR struct chunk size(2) Largest target is 0

    __expand_heap@new_brkp	PTR unsigned char  size(2) Largest target is 0
		 -> __heap_hi(UNKNOWN), NULL(NULL[0]), 

    brkp	PTR unsigned char  size(2) Largest target is 0
		 -> __heap_hi(UNKNOWN), NULL(NULL[0]), 

    __expand_heap@pn	PTR unsigned int  size(2) Largest target is 2
		 -> malloc@m(COMRAM[2]), 

    malloc@sz	PTR unsigned int  size(2) Largest target is 3614
		 -> __heap_hi..(UNKNOWN), __heap_hi(UNKNOWN), RAM(DATA[3614]), NULL(NULL[0]), 

    sp____expand_heap	PTR void  size(2) Largest target is 0
		 -> __heap_hi(UNKNOWN), NULL(NULL[0]), 

    malloc@new	PTR unsigned char  size(2) Largest target is 3614
		 -> __heap_hi(UNKNOWN), RAM(DATA[3614]), NULL(NULL[0]), 

    malloc@end	PTR unsigned char  size(2) Largest target is 3614
		 -> __heap_hi(UNKNOWN), RAM(DATA[3614]), NULL(NULL[0]), 

    malloc@cur	PTR unsigned char  size(2) Largest target is 3614
		 -> __heap_hi(UNKNOWN), RAM(DATA[3614]), NULL(NULL[0]), 

    malloc@p	PTR void  size(2) Largest target is 3614
		 -> __heap_hi..(UNKNOWN), __heap_hi(UNKNOWN), RAM(DATA[3614]), NULL(NULL[0]), 

    free@c.....next	PTR struct chunk size(2) Largest target is 0

    free@c...next	PTR struct chunk size(2) Largest target is 0

    free@c	PTR struct chunk size(2) Largest target is 3614
		 -> __heap_hi..(UNKNOWN), __heap_hi(UNKNOWN), RAM(DATA[3614]), NULL(NULL[0]), 

    free@ptr	PTR void  size(2) Largest target is 3614
		 -> __heap_hi..(UNKNOWN), __heap_hi(UNKNOWN), RAM(DATA[3614]), NULL(NULL[0]), 

    free@cptr	PTR unsigned char  size(2) Largest target is 3614
		 -> __heap_hi..(UNKNOWN), __heap_hi(UNKNOWN), RAM(DATA[3614]), NULL(NULL[0]), 

    __simple_search_fl@best_last.....next	PTR struct chunk size(2) Largest target is 0

    __simple_search_fl@split.....next	PTR struct chunk size(2) Largest target is 0

    __simple_search_fl@split...next	PTR struct chunk size(2) Largest target is 0

    __simple_search_fl@split	PTR struct chunk size(2) Largest target is 3614
		 -> __heap_hi..(UNKNOWN), __heap_hi(UNKNOWN), RAM(DATA[3614]), NULL(NULL[0]), 

    __simple_search_fl@next...next	PTR struct chunk size(2) Largest target is 0

    __simple_search_fl@next	PTR struct chunk size(2) Largest target is 3614
		 -> __heap_hi..(UNKNOWN), __heap_hi(UNKNOWN), RAM(DATA[3614]), NULL(NULL[0]), 

    __simple_search_fl@best_last...next	PTR struct chunk size(2) Largest target is 0

    __simple_search_fl@best...next	PTR struct chunk size(2) Largest target is 0

    sp____simple_search_fl...next	PTR struct chunk size(2) Largest target is 0

    __freelist...next	PTR struct chunk size(2) Largest target is 0

    __simple_search_fl@last.....next	PTR struct chunk size(2) Largest target is 0

    __simple_search_fl@last...next	PTR struct chunk size(2) Largest target is 0

    S1462$next	PTR struct chunk size(2) Largest target is 0

    __simple_search_fl@c...next	PTR struct chunk size(2) Largest target is 0

    __simple_search_fl@c	PTR struct chunk size(2) Largest target is 3614
		 -> __heap_hi..(UNKNOWN), __heap_hi(UNKNOWN), RAM(DATA[3614]), NULL(NULL[0]), 

    sp____simple_search_fl	PTR void  size(2) Largest target is 3614
		 -> __heap_hi..(UNKNOWN), __heap_hi(UNKNOWN), RAM(DATA[3614]), NULL(NULL[0]), 

    __freelist	PTR struct chunk size(2) Largest target is 3614
		 -> __heap_hi..(UNKNOWN), __heap_hi(UNKNOWN), RAM(DATA[3614]), NULL(NULL[0]), 

    __simple_search_fl@last	PTR struct chunk size(2) Largest target is 3614
		 -> __heap_hi..(UNKNOWN), __heap_hi(UNKNOWN), RAM(DATA[3614]), NULL(NULL[0]), 

    __simple_search_fl@best_last	PTR struct chunk size(2) Largest target is 3614
		 -> __heap_hi..(UNKNOWN), __heap_hi(UNKNOWN), RAM(DATA[3614]), NULL(NULL[0]), 

    __simple_search_fl@best	PTR struct chunk size(2) Largest target is 3614
		 -> __heap_hi..(UNKNOWN), __heap_hi(UNKNOWN), RAM(DATA[3614]), NULL(NULL[0]), 

    pixel	PTR unsigned char  size(2) Largest target is 3614
		 -> __heap_hi..(UNKNOWN), __heap_hi(UNKNOWN), RAM(DATA[3614]), NULL(NULL[0]), 

    set_pixel_color@p	PTR unsigned char  size(2) Largest target is 3614
		 -> __heap_hi..(UNKNOWN), __heap_hi(UNKNOWN), RAM(DATA[3614]), NULL(NULL[0]), 

    sp__ini_array	PTR unsigned char  size(2) Largest target is 3614
		 -> __heap_hi..(UNKNOWN), __heap_hi(UNKNOWN), RAM(DATA[3614]), NULL(NULL[0]), 

    sp__malloc	PTR void  size(2) Largest target is 3614
		 -> __heap_hi..(UNKNOWN), __heap_hi(UNKNOWN), RAM(DATA[3614]), NULL(NULL[0]), 

    ini_array@array	PTR unsigned char  size(2) Largest target is 3614
		 -> __heap_hi..(UNKNOWN), __heap_hi(UNKNOWN), RAM(DATA[3614]), NULL(NULL[0]), 


Critical Paths under _main in COMRAM

    None.

Critical Paths under _interrupciones in COMRAM

    _interrupciones->_ini_array
    _set_pixel_color->___wmul
    _ini_array->_malloc
    _malloc->___simple_search_fl
    _gestion_est_rep->_free
    _envio_pixel->___lwdiv

Critical Paths under _main in BANK0

    None.

Critical Paths under _interrupciones in BANK0

    None.

Critical Paths under _main in BANK1

    None.

Critical Paths under _interrupciones in BANK1

    None.

Critical Paths under _main in BANK2

    None.

Critical Paths under _interrupciones in BANK2

    None.

Critical Paths under _main in BANK3

    None.

Critical Paths under _interrupciones in BANK3

    None.

Critical Paths under _main in BANK4

    None.

Critical Paths under _interrupciones in BANK4

    None.

Critical Paths under _main in BANK5

    None.

Critical Paths under _interrupciones in BANK5

    None.

Critical Paths under _main in BANK6

    None.

Critical Paths under _interrupciones in BANK6

    None.

Critical Paths under _main in BANK7

    None.

Critical Paths under _interrupciones in BANK7

    None.

Critical Paths under _main in BANK8

    None.

Critical Paths under _interrupciones in BANK8

    None.

Critical Paths under _main in BANK9

    None.

Critical Paths under _interrupciones in BANK9

    None.

Critical Paths under _main in BANK10

    None.

Critical Paths under _interrupciones in BANK10

    None.

Critical Paths under _main in BANK11

    None.

Critical Paths under _interrupciones in BANK11

    None.

Critical Paths under _main in BANK12

    None.

Critical Paths under _interrupciones in BANK12

    None.

Critical Paths under _main in BANK14

    None.

Critical Paths under _interrupciones in BANK14

    None.

Call Graph Tables:

 ---------------------------------------------------------------------------------
 (Depth) Function   	        Calls       Base Space   Used Autos Params    Refs
 ---------------------------------------------------------------------------------
 (0) _main                                                 0     0      0       0
                      _i2c_ini_slave
                         _ini_timer0
                            _spi_ini
 ---------------------------------------------------------------------------------
 (1) _spi_ini                                              0     0      0       0
 ---------------------------------------------------------------------------------
 (1) _ini_timer0                                           0     0      0       0
 ---------------------------------------------------------------------------------
 (1) _i2c_ini_slave                                        0     0      0       0
 ---------------------------------------------------------------------------------
 Estimated maximum stack depth 1
 ---------------------------------------------------------------------------------
 (Depth) Function   	        Calls       Base Space   Used Autos Params    Refs
 ---------------------------------------------------------------------------------
 (2) _interrupciones                                      10    10      0    5930
                                             38 COMRAM    10    10      0
                            ___lldiv
                          _end_frame
                        _envio_pixel
                    _gestion_est_rep
                          _ini_array
                    _set_pixel_color
                        _start_frame
 ---------------------------------------------------------------------------------
 (3) _set_pixel_color                                      5     2      3    1138
                                              6 COMRAM     5     2      3
                             ___wmul
 ---------------------------------------------------------------------------------
 (3) _ini_array                                            6     2      4    2864
                                             32 COMRAM     6     2      4
                             ___wmul
                             _malloc
 ---------------------------------------------------------------------------------
 (4) _malloc                                              14    12      2    1748
                                             20 COMRAM    12    10      2
                      ___expand_heap
                 ___simple_search_fl
                             ___wmul (ARG)
 ---------------------------------------------------------------------------------
 (5) ___simple_search_fl                                  20    18      2     915
                                              0 COMRAM    20    18      2
 ---------------------------------------------------------------------------------
 (5) ___expand_heap                                        8     6      2     224
                                              0 COMRAM     8     6      2
 ---------------------------------------------------------------------------------
 (3) _gestion_est_rep                                      4     4      0     377
                                             10 COMRAM     4     4      0
                               _free
                        _start_frame
 ---------------------------------------------------------------------------------
 (3) _start_frame                                          0     0      0       0
 ---------------------------------------------------------------------------------
 (4) _free                                                10     8      2     377
                                              0 COMRAM    10     8      2
 ---------------------------------------------------------------------------------
 (3) _envio_pixel                                          2     2      0    1211
                                              7 COMRAM     2     2      0
                            ___lwdiv
                             ___wmul
 ---------------------------------------------------------------------------------
 (4) ___wmul                                               6     2      4     871
                                              0 COMRAM     6     2      4
 ---------------------------------------------------------------------------------
 (4) ___lwdiv                                              7     3      4     340
                                              0 COMRAM     7     3      4
 ---------------------------------------------------------------------------------
 (3) _end_frame                                            5     5      0       0
                                              0 COMRAM     5     5      0
 ---------------------------------------------------------------------------------
 (3) ___lldiv                                             13     5      8     340
                                              0 COMRAM    13     5      8
 ---------------------------------------------------------------------------------
 Estimated maximum stack depth 5
 ---------------------------------------------------------------------------------

 Call Graph Graphs:

 _main (ROOT)
   _i2c_ini_slave
   _ini_timer0
   _spi_ini

 _interrupciones (ROOT)
   ___lldiv
   _end_frame
   _envio_pixel
     ___lwdiv
     ___wmul
   _gestion_est_rep
     _free
     _start_frame
   _ini_array
     ___wmul
     _malloc
       ___expand_heap
       ___simple_search_fl
       ___wmul (ARG)
   _set_pixel_color
     ___wmul
   _start_frame

 Address spaces:
Name               Size   Autos  Total    Cost      Usage
BIGRAM             CFF      0       0      54        0.0%
EEDATA             400      0       0       0        0.0%
BITBIGSFR          100      0       0      51        0.0%
BITBANK12          100      0       0      28        0.0%
BANK12             100      0       0      29        0.0%
BITBANK11          100      0       0      26        0.0%
BANK11             100      0       0      27        0.0%
BITBANK10          100      0       0      24        0.0%
BANK10             100      0       0      25        0.0%
BITBANK9           100      0       0      22        0.0%
BANK9              100      0       0      23        0.0%
BITBANK8           100      0       0      20        0.0%
BANK8              100      0       0      21        0.0%
BITBANK7           100      0       0      18        0.0%
BANK7              100      0       0      19        0.0%
BITBANK6           100      0       0      16        0.0%
BANK6              100      0       0      17        0.0%
BITBANK5           100      0       0      14        0.0%
BANK5              100      0       0      15        0.0%
BITBANK4           100      0       0      12        0.0%
BANK4              100      0       0      13        0.0%
BITBANK3           100      0       0      10        0.0%
BANK3              100      0       0      11        0.0%
BITBANK2           100      0       0       8        0.0%
BANK2              100      0       0       9        0.0%
BITBANK1           100      0       0       6        0.0%
BANK1              100      0       0       7        0.0%
BITBANK0            A0      0       0       4        0.0%
BANK0               A0      0       8       5        5.0%
BITBIGSFR_1lhh      6B      0       0      37        0.0%
BITBIGSFR_1lll      6B      0       0      50        0.0%
BITCOMRAM           5E      0       0       0        0.0%
COMRAM              5E     30      5B       1       96.8%
BITBIGSFR_1hllh     3C      0       0      34        0.0%
BITBIGSFR_1llhl     22      0       0      42        0.0%
BITBIGSFR_1llhl     1F      0       0      48        0.0%
BITBANK14           1F      0       0      30        0.0%
BANK14              1F      0       0      31        0.0%
BIGRAM_1            1F      0       0      53        0.0%
BITBIGSFR_1llhh     1C      0       0      39        0.0%
BITBIGSFR_1hhl      1C      0       0      33        0.0%
BITBIGSFR_1hhh       D      0       0      32        0.0%
BITBIGSFR_1llhh      8      0       0      41        0.0%
BITBIGSFR_1lhl       7      0       0      38        0.0%
BITBIGSFR_1hlll      7      0       0      36        0.0%
BITBIGSFR_1llhl      4      0       0      47        0.0%
BITBIGSFR_1llhl      4      0       0      44        0.0%
BITBIGSFR_1llhl      4      0       0      46        0.0%
BITBIGSFR_1llhl      2      0       0      45        0.0%
BITBIGSFR_1llhl      2      0       0      43        0.0%
BITBIGSFR_1llhh      1      0       0      40        0.0%
BITBIGSFR_1hllh      1      0       0      35        0.0%
BITBIGSFR_1llhl      1      0       0      49        0.0%
BIGSFR_1             0      0       0     200        0.0%
BIGSFR               0      0       0     200        0.0%
BITSFR_3             0      0       0     200        0.0%
SFR_3                0      0       0     200        0.0%
BITSFR_2             0      0       0     200        0.0%
SFR_2                0      0       0     200        0.0%
BITSFR_1             0      0       0     200        0.0%
SFR_1                0      0       0     200        0.0%
BITSFR               0      0       0     200        0.0%
SFR                  0      0       0     200        0.0%
STACK                0      0       0       2        0.0%
NULL                 0      0       0       0        0.0%
ABS                  0      0      63      52        0.0%
DATA                 0      0      63       3        0.0%
CODE                 0      0       0       0        0.0%


Microchip Technology PIC18 Macro Assembler V2.41 build 20230208172133 
Symbol Table                                                                                   Mon Jul 03 11:04:18 2023

                                _i 0049                                  _n 0059  
                                _s 005A                                 l33 0E54  
              ___wmul@multiplicand 0003             __end_of_interrupciones 04BE  
                              l106 0F4E                                l225 0EB6  
                              l197 0F30                                l198 0F30  
                      _start_frame 0F00                                _rep 0035  
                              wreg 0FE8                               l1680 0E3A  
                             l1682 0E4C                               l1690 0F38  
                             l1930 0F2C                               l1684 0E4E  
                             l1676 0E1E                               l1692 0F48  
                             l1932 0F2E                               l1686 0E50  
                             l1678 0E28                               l1694 0F4C  
                             l1774 0E88                               l1688 0E52  
                             l1776 0EB0                               l1928 0F20  
                             l1778 0EB2                      _i2c_ini_slave 0E1E  
                             _brkp 003D                               _free 08AA  
                             _main 0F20                               fsr1h 0FE2  
                             fsr2h 0FDA                               indf2 0FDF  
                             fsr1l 0FE1                               fsr2l 0FD9  
                             btemp 005C                               prodh 0FF4  
                             prodl 0FF3                               start 04BE  
                     ___param_bank 0000                       ?_envio_pixel 0001  
                  _set_pixel_color 0DDA                    ?_interrupciones 0001  
                            ?_free 0001                              ?_main 0001  
                  __end_of___lldiv 0D20                    __end_of___lwdiv 0D94  
                            i2l113 0E1C                              i2l117 0DD8  
                            i2l125 0B1A                              i2l133 0F1E  
                            i2l109 0E86                              i2l142 0BCC  
                            i2l160 043C                              i2l129 0B1A  
                            i2l154 0440                              i2l147 00A6  
                            i2l228 0EDC                              i2l262 0D1E  
                            i2l255 0D0E                              i2l192 04A2  
                            i2l726 0D92                              i2l719 0D8A  
                            i2l913 05E8                              i2l905 0736  
                            i2l922 0A02                              i2l916 06F2  
                            i2l951 085C                              i2l953 0850  
                            i2l972 0C7A                              i2l949 08A8  
                            i2l967 0BF8                              _TMR0H 0FD3  
                            _TMR0L 0FD2                              _TRISC 0F89  
                            _n_led 0053                              _dummy 0057  
                            _errno 0043                     ?_i2c_ini_slave 0001  
                            _rep_r 0031                              _pixel 0055  
                            free@c 0009                  ??_gestion_est_rep 000B  
                  __end_of_spi_ini 0EB8                   ___expand_heap@pn 0001  
                            ttemp5 005D                              ttemp6 0060  
                            ttemp7 0064                              status 0FD8  
                            wtemp8 005D                    __initialization 0EDE  
                     __end_of_free 0A04                       __end_of_main 0F38  
                    ___expand_heap 0BCE                             ??_free 0003  
                           ??_main 0000                      __activetblptr 0003  
                   ini_array@array 0025                             _ANSELC 0F1C  
                           _T0CON0 0FD4                             _T0CON1 0FD5  
                           _RB1PPS 0EEB                             _RB2PPS 0EEC  
                           _RC3PPS 0EF5                             _RC5PPS 0EF7  
                           i2l1500 0604                             i2l1510 069E  
                           i2l1502 0616                             i2l1512 06D6  
                           i2l1504 0628                             i2l1600 0884  
                           i2l1610 0F04                             i2l1530 0BF0  
                           i2l1514 070A                             i2l1506 066A  
                           i2l1602 088C                             i2l1612 0F06  
                           i2l1540 0C56                             i2l1532 0C0E  
                           i2l1516 0716                             i2l1508 068E  
                           i2l1604 08A0                             i2l1710 0D96  
                           i2l1630 0962                             i2l1622 08C8  
                           i2l1614 0F18                             i2l1542 0C5E  
                           i2l1534 0C16                             i2l1526 0BCE  
                           i2l1518 072A                             i2l1470 04EC  
                           i2l1550 0738                             i2l1702 0DDA  
                           i2l1800 0D08                             i2l1712 0D98  
                           i2l1720 0A14                             i2l1624 08E6  
                           i2l1616 0F1C                             i2l1608 0F00  
                           i2l1536 0C22                             i2l1528 0BDE  
                           i2l1480 0536                             i2l1560 0756  
                           i2l1552 0738                             i2l1704 0E04  
                           i2l1714 0DD2                             i2l1650 0ED4  
                           i2l1722 0A16                             i2l1642 09D6  
                           i2l1626 091A                             i2l1618 08AA  
                           i2l1546 0C6A                             i2l1538 0C40  
                           i2l1490 059C                             i2l1482 055A  
                           i2l1474 04F8                             i2l1562 076C  
                           i2l1554 0738                             i2l1706 0E10  
                           i2l1810 004E                             i2l1802 0022  
                           i2l1716 0DD6                             i2l1708 0D94  
                           i2l1660 0D42                             i2l1740 0ABC  
                           i2l1732 0A72                             i2l1724 0A1C  
                           i2l1628 093A                             i2l1636 096E  
                           i2l1644 09EE                             i2l1492 05AE  
                           i2l1484 056E                             i2l1476 0504  
                           i2l1468 04C2                             i2l1580 07F2  
                           i2l1572 07AA                             i2l1564 0778  
                           i2l1556 074A                             i2l1900 0406  
                           i2l1812 0056                             i2l1804 0032  
                           i2l1670 0D7C                             i2l1662 0D4A  
                           i2l1654 0D20                             i2l1750 0B14  
                           i2l1742 0AE8                             i2l1734 0A84  
                           i2l1726 0A2C                             i2l1718 0A04  
                           i2l1638 09AA                             i2l1478 0524  
                           i2l1590 0828                             i2l1582 07FE  
                           i2l1574 07AA                             i2l1566 0796  
                           i2l1558 074E                             i2l1910 0450  
                           i2l1902 041C                             i2l1830 00E2  
                           i2l1814 005E                             i2l1822 006C  
                           i2l1806 0040                             i2l1672 0D7E  
                           i2l1664 0D58                             i2l1656 0D28  
                           i2l1648 0EB8                             i2l1744 0AF0  
                           i2l1736 0AB4                             i2l1728 0A3E  
                           i2l1752 0B1C                             i2l1496 05D8  
                           i2l1488 057E                             i2l1592 0848  
                           i2l1584 0812                             i2l1576 07BE  
                           i2l1568 079E                             i2l1920 049E  
                           i2l1912 045E                             i2l1904 042C  
                           i2l1832 00E8                             i2l1840 0116  
                           i2l1824 00B6                             i2l1816 0062  
                           i2l1808 0046                             i2l1674 0D84  
                           i2l1666 0D5E                             i2l1658 0D3A  
                           i2l1746 0AF2                             i2l1738 0AB8  
                           i2l1770 0BBC                             i2l1762 0B5C  
                           i2l1754 0B32                             i2l1498 05F0  
                           i2l1594 0864                             i2l1578 07D0  
                           i2l1914 0460                             i2l1850 0164  
                           i2l1906 0430                             i2l1842 0128  
                           i2l1834 00F8                             i2l1826 00C4  
                           i2l1818 0066                             i2l1780 0C7C  
                           i2l1668 0D74                             i2l1748 0B10  
                           i2l1764 0B98                             i2l1756 0B3A  
                           i2l1596 086C                             i2l1916 048C  
                           i2l1908 0434                             i2l1860 01FA  
                           i2l1852 0178                             i2l1844 013A  
                           i2l1836 00FA                             i2l1828 00D4  
                           i2l1790 0CC4                             i2l1782 0C8C  
                           i2l1766 0BA4                             i2l1758 0B42  
                           i2l1598 087C                             i2l1918 048E  
                           i2l1870 02A0                             i2l1862 022E  
                           i2l1854 01A0                             i2l1846 0144  
                           i2l1838 0102                             i2l1792 0CCE  
                           i2l1784 0CA2                             i2l1768 0BB4  
                           i2l1696 0E56                             i2l1880 02EA  
                           i2l1872 02AA                             i2l1864 0242  
                           i2l1856 01B4                             i2l1848 0156  
                           i2l1794 0CEC                             i2l1786 0CAA  
                           i2l1698 0E7E                             i2l1890 0364  
                           i2l1882 02FE                             i2l1874 02BE  
                           i2l1866 0254                             i2l1858 01E6  
                           i2l1796 0CFC                             i2l1788 0CB6  
                           i2l1892 0378                             i2l1884 0308  
                           i2l1876 02CC                             i2l1868 028C  
                           i2l1964 0080                             i2l1798 0CFE  
                           i2l1894 03AA                             i2l1886 0328  
                           i2l1878 02E0                             i2l1896 03BE  
                           i2l1888 033C                             i2l1898 03F2  
          __end_of_set_pixel_color 0E1E                     ?___expand_heap 0001  
          ___simple_search_fl@best 0013            ___simple_search_fl@last 000D  
          ___simple_search_fl@next 000F                             ___wmul 0EB8  
                        ??___lldiv 0009                          ??___lwdiv 0005  
                           _malloc 0738                             clear_0 0EE4  
                           clear_1 0EF0                             isa$std 0001  
                           _tiempo 0064                    ??_i2c_ini_slave 0000  
                        ??_spi_ini 0000                         __accesstop 0060  
          __end_of__initialization 0EF6                      ___rparam_used 0001  
                       ___freelist 0045                     __pcstackCOMRAM 0001  
                     ?_start_frame 0001                       ini_array@led 0023  
       __end_of___simple_search_fl 0738                         __pbssBANK0 0060  
                  ??___expand_heap 0003                   ?_set_pixel_color 0007  
                 ??_interrupciones 0027                            ?___wmul 0001  
                          ?_malloc 0015                    _gestion_est_rep 0B1C  
                          i2u70_40 04EC                            i2u70_41 04E8  
                          i2u71_40 0524                            i2u71_41 0520  
                          i2u80_40 0BF0                            i2u72_40 0536  
                          i2u80_41 0BEC                            i2u72_41 0532  
                          i2u81_40 0C0E                            i2u73_40 059C  
                          i2u81_41 0C0A                            i2u73_41 0598  
                          i2u82_40 0C40                            i2u74_40 05AE  
                          i2u90_40 0848                            i2u82_41 0C3C  
                          i2u74_41 05AA                            i2u90_41 0844  
                          i2u91_40 0F18                            i2u83_40 0C56  
                          i2u75_40 05D4                            i2u91_41 0F14  
                          i2u83_41 0C52                            i2u75_41 05D0  
                          i2u92_40 08C4                            i2u76_40 0616  
                          i2u84_40 074A                            i2u92_41 08C0  
                          i2u76_41 0612                            i2u84_41 0746  
                          i2u93_40 08E6                            i2u77_40 0628  
                          i2u85_40 076C                            i2u93_41 08E2  
                          i2u77_41 0624                            i2u85_41 0768  
                          i2u94_40 091A                            i2u78_40 066A  
                          i2u86_40 0796                            i2u94_41 0916  
                          i2u78_41 0666                            i2u86_41 0792  
                          i2u95_40 09AA                            i2u79_40 070A  
                          i2u87_40 07D0                            i2u95_41 09A6  
                          i2u79_41 0706                            i2u87_41 07CC  
                          i2u96_40 0D3A                            i2u88_40 07F2  
                          i2u96_41 0D36                            i2u88_41 07EE  
                          _SSP1ADD 0F92                            i2u97_40 0D58  
                          i2u89_40 0824                            i2u97_41 0D54  
                          i2u89_41 0820                            _SSP2ADD 0E8E  
                          i2u98_40 0D74                            i2u98_41 0D70  
                          i2u99_40 0E04                            i2u99_41 0E00  
                          _SSP1BUF 0F91                            _SSP2BUF 0E8D  
                          _SSP2MSK 0E8F                            __Hparam 0000  
                __end_of_end_frame 0DDA                            __Lparam 0000  
             ___simple_search_fl@c 0011               ___simple_search_fl@n 0001  
                       _ini_timer0 0F38                            ___lldiv 0C7C  
                          ___lwdiv 0D20           ___simple_search_fl@split 000B  
                          __pcinit 0EDE                            __ramtop 1000  
                __end_of_ini_array 0E88                            __ptext0 0F20  
                          __ptext1 0E88                            __ptext2 0F38  
                          __ptext3 0E1E                            __ptext5 0DDA  
                          __ptext6 0E56                            __ptext7 0738  
                          __ptext8 04C2                            __ptext9 0BCE  
                          _led_env 004F                            _est_sec 004D  
                          _periodo 0039                            _spi_ini 0E88  
                          free@ptr 0001               end_of_initialization 0EF6  
                          malloc@m 0019                            malloc@n 0015  
                          malloc@p 001D             ___expand_heap@new_brkp 0007  
                  ___lldiv@divisor 0005                    ___lldiv@counter 000D  
                          postdec1 0FE5                            postdec2 0FDD  
                          postinc0 0FEE                            postinc1 0FE6  
                          postinc2 0FDE            __end_of_gestion_est_rep 0BCE  
                 set_pixel_color@c 0009                   set_pixel_color@m 0007  
                 set_pixel_color@p 000A                         _spi_estado 005B  
                        _TRISBbits 0F88                        ?_ini_timer0 0001  
                   __end_of___wmul 0EDE                     __end_of_malloc 08AA  
                  ___expand_heap@n 0005                start_initialization 0EDE  
                       malloc@lock 0060              __end_of_i2c_ini_slave 0E56  
                    ini_array@secu 0021                 ___simple_search_fl 04C2  
                    ??_envio_pixel 0008       ___simple_search_fl@best_last 0009  
                         ??___wmul 0005                   ?_gestion_est_rep 0001  
                         ??_malloc 0017                ?___simple_search_fl 0001  
                        ___heap_hi 0D00                          ___heap_lo 0068  
                      __pbssCOMRAM 0031                      __pcstackBANK0 0000  
             ??___simple_search_fl 0003                   ___lwdiv@dividend 0001  
            __end_of___expand_heap 0C7C                          __pintcode 0008  
                         ?___lldiv 0001                          _end_frame 0D94  
                         ?___lwdiv 0001                          _direccion 0058  
              __end_of_envio_pixel 0B1C                          _led_group 0051  
                        _ini_array 0E56                           ?_spi_ini 0001  
                        _est_sec_r 004B                   ___lwdiv@quotient 0005  
                   ___wmul@product 0005                           _PIE0bits 0EBD  
                         _IPR3bits 0EB8                           _PIE3bits 0EC0  
                         i2u100_45 0DA8                           i2u101_40 0DD2  
                         i2u101_41 0DCE                           i2u102_40 0A14  
                         i2u110_40 0B98                           i2u102_41 0A10  
                         i2u110_41 0B94                           i2u111_40 0CA2  
                         i2u103_40 0A2C                           i2u111_41 0C9E  
                         i2u103_41 0A28                           i2u112_40 0CC4  
                         i2u104_40 0A3E                           i2u120_40 00F8  
                         i2u112_41 0CC0                           i2u104_41 0A3A  
                         i2u120_41 00F4                           i2u113_40 0CEC  
                         i2u105_40 0A84                           i2u121_40 0128  
                         i2u113_41 0CE8                           i2u105_41 0A80  
                         i2u121_41 0124                           i2u106_40 0AE8  
                         i2u130_40 02E0                           i2u122_40 013A  
                         i2u114_40 0032                           i2u106_41 0AE4  
                         i2u130_41 02DC                           i2u122_41 0136  
                         i2u114_41 002E                           i2u107_40 0B10  
                         i2u131_40 02FE                           i2u123_40 0156  
                         i2u115_40 0040                           i2u107_41 0B0C  
                         i2u131_41 02FA                           i2u123_41 0152  
                         i2u115_41 003C                           i2u108_40 0B32  
                         i2u132_40 033C                           i2u124_40 0178  
                         i2u116_40 00B6                           i2u108_41 0B2E  
                         i2u132_41 0338                           i2u124_41 0174  
                         i2u116_41 00B2                           i2u109_40 0B58  
                         i2u133_40 0378                           i2u125_40 01B4  
                         i2u117_40 00C4                           i2u109_41 0B54  
                         i2u133_41 0374                           i2u125_41 01B0  
                         i2u117_41 00C0                           i2u134_40 03BE  
                         i2u126_40 01FA                           i2u118_40 00D4  
                         i2u134_41 03BA                           i2u126_41 01F6  
                         i2u118_41 00D0                           i2u135_40 0406  
                         i2u127_40 0242                           i2u119_40 00E2  
                         i2u135_41 0402                           i2u127_41 023E  
                         i2u119_41 00DE                           i2u136_40 0450  
                         i2u128_40 02A0                           i2u136_41 044C  
                         i2u128_41 029C                           i2u137_40 045E  
                         i2u129_40 02BE                           i2u137_41 045A  
                         i2u129_41 02BA                           i2u138_40 048C  
                         i2u138_41 0488                           _PIR0bits 0EC5  
                         _PIR3bits 0EC8                           _SSP1CON1 0F95  
                         _SSP2CON1 0E91                           _SSP2CON2 0E92  
                       ?_end_frame 0001                           _SSP1STAT 0F94  
                ___wmul@multiplier 0001                         ?_ini_array 0021  
                        malloc@end 003F                          malloc@cur 0041  
                        malloc@new 001F                           __Hrparam 0000  
                     ??_ini_timer0 0000                           __Lrparam 0000  
                      _envio_pixel 0A04                         _ANSELBbits 0F14  
                    ??_start_frame 0001                         _T0CON0bits 0FD4  
                  ___lwdiv@divisor 0003                    ___lwdiv@counter 0007  
                ??_set_pixel_color 000A                           __ptext10 0B1C  
                         __ptext11 0F00                           __ptext12 08AA  
                         __ptext13 0A04                           __ptext14 0EB8  
                         __ptext15 0D20                           __ptext16 0D94  
                         __ptext17 0C7C                       _SSP1CON1bits 0F95  
               __end_of_ini_timer0 0F50                       _SSP2CON1bits 0E91  
                         _contador 0047                           isa$xinst 0000  
                         int$flags 005C                        ??_end_frame 0001  
                         free@cptr 0007                       _SSP2STATbits 0E90  
                         malloc@sz 001B                         _INTCONbits 0FF2  
                      ??_ini_array 0025  ___simple_search_fl@remaining_size 0007  
              __end_of_start_frame 0F20                           intlevel2 0000  
                 ___lldiv@dividend 0001                     _interrupciones 0008  
                       _SSP1DATPPS 0EB3                         _SSP2DATPPS 0E8B  
                       _SSP1CLKPPS 0EB2                   ___lldiv@quotient 0009  
                       _SSP2CLKPPS 0E8A  
